Archive member included because of file (symbol)

c:/altera/12.1sp1/nios2eds/bin/gnu/h-i686-mingw32/bin/../lib/gcc/nios2-elf/4.1.2/../../../../nios2-elf/lib\libstdc++.a(class_type_info.o)
                              obj/default/transmitterInterface.o (vtable for __cxxabiv1::__class_type_info)
c:/altera/12.1sp1/nios2eds/bin/gnu/h-i686-mingw32/bin/../lib/gcc/nios2-elf/4.1.2/../../../../nios2-elf/lib\libstdc++.a(del_op.o)
                              obj/default/transmitterInterface.o (operator delete(void*))
c:/altera/12.1sp1/nios2eds/bin/gnu/h-i686-mingw32/bin/../lib/gcc/nios2-elf/4.1.2/../../../../nios2-elf/lib\libstdc++.a(si_class_type_info.o)
                              c:/altera/12.1sp1/nios2eds/bin/gnu/h-i686-mingw32/bin/../lib/gcc/nios2-elf/4.1.2/../../../../nios2-elf/lib\libstdc++.a(class_type_info.o) (vtable for __cxxabiv1::__si_class_type_info)
c:/altera/12.1sp1/nios2eds/bin/gnu/h-i686-mingw32/bin/../lib/gcc/nios2-elf/4.1.2/../../../../nios2-elf/lib\libstdc++.a(tinfo.o)
                              c:/altera/12.1sp1/nios2eds/bin/gnu/h-i686-mingw32/bin/../lib/gcc/nios2-elf/4.1.2/../../../../nios2-elf/lib\libstdc++.a(class_type_info.o) (std::type_info::__is_pointer_p() const)
c:/altera/12.1sp1/nios2eds/bin/gnu/h-i686-mingw32/bin/../lib/gcc/nios2-elf/4.1.2/../../../../nios2-elf/lib\libc.a(lib_a-malloc.o)
                              c:/altera/12.1sp1/nios2eds/bin/gnu/h-i686-mingw32/bin/../lib/gcc/nios2-elf/4.1.2/../../../../nios2-elf/lib\libstdc++.a(del_op.o) (free)
c:/altera/12.1sp1/nios2eds/bin/gnu/h-i686-mingw32/bin/../lib/gcc/nios2-elf/4.1.2/../../../../nios2-elf/lib\libc.a(lib_a-mallocr.o)
                              c:/altera/12.1sp1/nios2eds/bin/gnu/h-i686-mingw32/bin/../lib/gcc/nios2-elf/4.1.2/../../../../nios2-elf/lib\libc.a(lib_a-malloc.o) (_malloc_r)
c:/altera/12.1sp1/nios2eds/bin/gnu/h-i686-mingw32/bin/../lib/gcc/nios2-elf/4.1.2/../../../../nios2-elf/lib\libc.a(lib_a-puts.o)
                              obj/default/transmitter_test.o (puts)
c:/altera/12.1sp1/nios2eds/bin/gnu/h-i686-mingw32/bin/../lib/gcc/nios2-elf/4.1.2/../../../../nios2-elf/lib\libc.a(lib_a-sbrkr.o)
                              c:/altera/12.1sp1/nios2eds/bin/gnu/h-i686-mingw32/bin/../lib/gcc/nios2-elf/4.1.2/../../../../nios2-elf/lib\libc.a(lib_a-mallocr.o) (_sbrk_r)
c:/altera/12.1sp1/nios2eds/bin/gnu/h-i686-mingw32/bin/../lib/gcc/nios2-elf/4.1.2/../../../../nios2-elf/lib\libc.a(lib_a-strlen.o)
                              c:/altera/12.1sp1/nios2eds/bin/gnu/h-i686-mingw32/bin/../lib/gcc/nios2-elf/4.1.2/../../../../nios2-elf/lib\libc.a(lib_a-puts.o) (strlen)
c:/altera/12.1sp1/nios2eds/bin/gnu/h-i686-mingw32/bin/../lib/gcc/nios2-elf/4.1.2/../../../../nios2-elf/lib\libc.a(lib_a-freer.o)
                              c:/altera/12.1sp1/nios2eds/bin/gnu/h-i686-mingw32/bin/../lib/gcc/nios2-elf/4.1.2/../../../../nios2-elf/lib\libc.a(lib_a-malloc.o) (_free_r)
c:/altera/12.1sp1/nios2eds/bin/gnu/h-i686-mingw32/bin/../lib/gcc/nios2-elf/4.1.2/../../../../nios2-elf/lib\libc.a(lib_a-fvwrite.o)
                              c:/altera/12.1sp1/nios2eds/bin/gnu/h-i686-mingw32/bin/../lib/gcc/nios2-elf/4.1.2/../../../../nios2-elf/lib\libc.a(lib_a-puts.o) (__sfvwrite_r)
c:/altera/12.1sp1/nios2eds/bin/gnu/h-i686-mingw32/bin/../lib/gcc/nios2-elf/4.1.2/../../../../nios2-elf/lib\libc.a(lib_a-impure.o)
                              c:/altera/12.1sp1/nios2eds/bin/gnu/h-i686-mingw32/bin/../lib/gcc/nios2-elf/4.1.2/../../../../nios2-elf/lib\libc.a(lib_a-malloc.o) (_impure_ptr)
c:/altera/12.1sp1/nios2eds/bin/gnu/h-i686-mingw32/bin/../lib/gcc/nios2-elf/4.1.2/../../../../nios2-elf/lib\libc.a(lib_a-int_errno.o)
                              c:/altera/12.1sp1/nios2eds/bin/gnu/h-i686-mingw32/bin/../lib/gcc/nios2-elf/4.1.2/../../../../nios2-elf/lib\libc.a(lib_a-sbrkr.o) (errno)
c:/altera/12.1sp1/nios2eds/bin/gnu/h-i686-mingw32/bin/../lib/gcc/nios2-elf/4.1.2/../../../../nios2-elf/lib\libc.a(lib_a-memchr.o)
                              c:/altera/12.1sp1/nios2eds/bin/gnu/h-i686-mingw32/bin/../lib/gcc/nios2-elf/4.1.2/../../../../nios2-elf/lib\libc.a(lib_a-fvwrite.o) (memchr)
c:/altera/12.1sp1/nios2eds/bin/gnu/h-i686-mingw32/bin/../lib/gcc/nios2-elf/4.1.2/../../../../nios2-elf/lib\libc.a(lib_a-memcpy.o)
                              c:/altera/12.1sp1/nios2eds/bin/gnu/h-i686-mingw32/bin/../lib/gcc/nios2-elf/4.1.2/../../../../nios2-elf/lib\libc.a(lib_a-fvwrite.o) (memcpy)
c:/altera/12.1sp1/nios2eds/bin/gnu/h-i686-mingw32/bin/../lib/gcc/nios2-elf/4.1.2/../../../../nios2-elf/lib\libc.a(lib_a-memmove.o)
                              c:/altera/12.1sp1/nios2eds/bin/gnu/h-i686-mingw32/bin/../lib/gcc/nios2-elf/4.1.2/../../../../nios2-elf/lib\libc.a(lib_a-fvwrite.o) (memmove)
c:/altera/12.1sp1/nios2eds/bin/gnu/h-i686-mingw32/bin/../lib/gcc/nios2-elf/4.1.2/../../../../nios2-elf/lib\libc.a(lib_a-reallocr.o)
                              c:/altera/12.1sp1/nios2eds/bin/gnu/h-i686-mingw32/bin/../lib/gcc/nios2-elf/4.1.2/../../../../nios2-elf/lib\libc.a(lib_a-fvwrite.o) (_realloc_r)
c:/altera/12.1sp1/nios2eds/bin/gnu/h-i686-mingw32/bin/../lib/gcc/nios2-elf/4.1.2/../../../../nios2-elf/lib\libc.a(lib_a-wsetup.o)
                              c:/altera/12.1sp1/nios2eds/bin/gnu/h-i686-mingw32/bin/../lib/gcc/nios2-elf/4.1.2/../../../../nios2-elf/lib\libc.a(lib_a-fvwrite.o) (__swsetup_r)
c:/altera/12.1sp1/nios2eds/bin/gnu/h-i686-mingw32/bin/../lib/gcc/nios2-elf/4.1.2/../../../../nios2-elf/lib\libc.a(lib_a-fflush.o)
                              c:/altera/12.1sp1/nios2eds/bin/gnu/h-i686-mingw32/bin/../lib/gcc/nios2-elf/4.1.2/../../../../nios2-elf/lib\libc.a(lib_a-fvwrite.o) (_fflush_r)
c:/altera/12.1sp1/nios2eds/bin/gnu/h-i686-mingw32/bin/../lib/gcc/nios2-elf/4.1.2/../../../../nios2-elf/lib\libc.a(lib_a-findfp.o)
                              c:/altera/12.1sp1/nios2eds/bin/gnu/h-i686-mingw32/bin/../lib/gcc/nios2-elf/4.1.2/../../../../nios2-elf/lib\libc.a(lib_a-wsetup.o) (__sinit)
c:/altera/12.1sp1/nios2eds/bin/gnu/h-i686-mingw32/bin/../lib/gcc/nios2-elf/4.1.2/../../../../nios2-elf/lib\libc.a(lib_a-fwalk.o)
                              c:/altera/12.1sp1/nios2eds/bin/gnu/h-i686-mingw32/bin/../lib/gcc/nios2-elf/4.1.2/../../../../nios2-elf/lib\libc.a(lib_a-fflush.o) (_fwalk_reent)
c:/altera/12.1sp1/nios2eds/bin/gnu/h-i686-mingw32/bin/../lib/gcc/nios2-elf/4.1.2/../../../../nios2-elf/lib\libc.a(lib_a-makebuf.o)
                              c:/altera/12.1sp1/nios2eds/bin/gnu/h-i686-mingw32/bin/../lib/gcc/nios2-elf/4.1.2/../../../../nios2-elf/lib\libc.a(lib_a-wsetup.o) (__smakebuf_r)
c:/altera/12.1sp1/nios2eds/bin/gnu/h-i686-mingw32/bin/../lib/gcc/nios2-elf/4.1.2/../../../../nios2-elf/lib\libc.a(lib_a-memset.o)
                              c:/altera/12.1sp1/nios2eds/bin/gnu/h-i686-mingw32/bin/../lib/gcc/nios2-elf/4.1.2/../../../../nios2-elf/lib\libc.a(lib_a-findfp.o) (memset)
c:/altera/12.1sp1/nios2eds/bin/gnu/h-i686-mingw32/bin/../lib/gcc/nios2-elf/4.1.2/../../../../nios2-elf/lib\libc.a(lib_a-stdio.o)
                              c:/altera/12.1sp1/nios2eds/bin/gnu/h-i686-mingw32/bin/../lib/gcc/nios2-elf/4.1.2/../../../../nios2-elf/lib\libc.a(lib_a-findfp.o) (__sclose)
c:/altera/12.1sp1/nios2eds/bin/gnu/h-i686-mingw32/bin/../lib/gcc/nios2-elf/4.1.2/../../../../nios2-elf/lib\libc.a(lib_a-writer.o)
                              c:/altera/12.1sp1/nios2eds/bin/gnu/h-i686-mingw32/bin/../lib/gcc/nios2-elf/4.1.2/../../../../nios2-elf/lib\libc.a(lib_a-stdio.o) (_write_r)
c:/altera/12.1sp1/nios2eds/bin/gnu/h-i686-mingw32/bin/../lib/gcc/nios2-elf/4.1.2/../../../../nios2-elf/lib\libc.a(lib_a-closer.o)
                              c:/altera/12.1sp1/nios2eds/bin/gnu/h-i686-mingw32/bin/../lib/gcc/nios2-elf/4.1.2/../../../../nios2-elf/lib\libc.a(lib_a-stdio.o) (_close_r)
c:/altera/12.1sp1/nios2eds/bin/gnu/h-i686-mingw32/bin/../lib/gcc/nios2-elf/4.1.2/../../../../nios2-elf/lib\libc.a(lib_a-fclose.o)
                              c:/altera/12.1sp1/nios2eds/bin/gnu/h-i686-mingw32/bin/../lib/gcc/nios2-elf/4.1.2/../../../../nios2-elf/lib\libc.a(lib_a-findfp.o) (fclose)
c:/altera/12.1sp1/nios2eds/bin/gnu/h-i686-mingw32/bin/../lib/gcc/nios2-elf/4.1.2/../../../../nios2-elf/lib\libc.a(lib_a-fstatr.o)
                              c:/altera/12.1sp1/nios2eds/bin/gnu/h-i686-mingw32/bin/../lib/gcc/nios2-elf/4.1.2/../../../../nios2-elf/lib\libc.a(lib_a-makebuf.o) (_fstat_r)
c:/altera/12.1sp1/nios2eds/bin/gnu/h-i686-mingw32/bin/../lib/gcc/nios2-elf/4.1.2/../../../../nios2-elf/lib\libc.a(lib_a-isattyr.o)
                              c:/altera/12.1sp1/nios2eds/bin/gnu/h-i686-mingw32/bin/../lib/gcc/nios2-elf/4.1.2/../../../../nios2-elf/lib\libc.a(lib_a-makebuf.o) (_isatty_r)
c:/altera/12.1sp1/nios2eds/bin/gnu/h-i686-mingw32/bin/../lib/gcc/nios2-elf/4.1.2/../../../../nios2-elf/lib\libc.a(lib_a-lseekr.o)
                              c:/altera/12.1sp1/nios2eds/bin/gnu/h-i686-mingw32/bin/../lib/gcc/nios2-elf/4.1.2/../../../../nios2-elf/lib\libc.a(lib_a-stdio.o) (_lseek_r)
c:/altera/12.1sp1/nios2eds/bin/gnu/h-i686-mingw32/bin/../lib/gcc/nios2-elf/4.1.2/../../../../nios2-elf/lib\libc.a(lib_a-readr.o)
                              c:/altera/12.1sp1/nios2eds/bin/gnu/h-i686-mingw32/bin/../lib/gcc/nios2-elf/4.1.2/../../../../nios2-elf/lib\libc.a(lib_a-stdio.o) (_read_r)
../transmitter_test_bsp/\libucosii_bsp.a(alt_close.o)
                              c:/altera/12.1sp1/nios2eds/bin/gnu/h-i686-mingw32/bin/../lib/gcc/nios2-elf/4.1.2/../../../../nios2-elf/lib\libc.a(lib_a-closer.o) (close)
../transmitter_test_bsp/\libucosii_bsp.a(alt_dev.o)
                              ../transmitter_test_bsp/\libucosii_bsp.a(alt_close.o) (alt_fd_list)
../transmitter_test_bsp/\libucosii_bsp.a(alt_errno.o)
                              ../transmitter_test_bsp/\libucosii_bsp.a(alt_close.o) (alt_errno)
../transmitter_test_bsp/\libucosii_bsp.a(alt_fstat.o)
                              c:/altera/12.1sp1/nios2eds/bin/gnu/h-i686-mingw32/bin/../lib/gcc/nios2-elf/4.1.2/../../../../nios2-elf/lib\libc.a(lib_a-fstatr.o) (fstat)
../transmitter_test_bsp/\libucosii_bsp.a(alt_isatty.o)
                              c:/altera/12.1sp1/nios2eds/bin/gnu/h-i686-mingw32/bin/../lib/gcc/nios2-elf/4.1.2/../../../../nios2-elf/lib\libc.a(lib_a-isattyr.o) (isatty)
../transmitter_test_bsp/\libucosii_bsp.a(alt_load.o)
                              ../transmitter_test_bsp//obj/HAL/src/crt0.o (alt_load)
../transmitter_test_bsp/\libucosii_bsp.a(alt_lseek.o)
                              c:/altera/12.1sp1/nios2eds/bin/gnu/h-i686-mingw32/bin/../lib/gcc/nios2-elf/4.1.2/../../../../nios2-elf/lib\libc.a(lib_a-lseekr.o) (lseek)
../transmitter_test_bsp/\libucosii_bsp.a(alt_main.o)
                              ../transmitter_test_bsp//obj/HAL/src/crt0.o (alt_main)
../transmitter_test_bsp/\libucosii_bsp.a(alt_read.o)
                              c:/altera/12.1sp1/nios2eds/bin/gnu/h-i686-mingw32/bin/../lib/gcc/nios2-elf/4.1.2/../../../../nios2-elf/lib\libc.a(lib_a-readr.o) (read)
../transmitter_test_bsp/\libucosii_bsp.a(alt_release_fd.o)
                              ../transmitter_test_bsp/\libucosii_bsp.a(alt_close.o) (alt_release_fd)
../transmitter_test_bsp/\libucosii_bsp.a(alt_sbrk.o)
                              c:/altera/12.1sp1/nios2eds/bin/gnu/h-i686-mingw32/bin/../lib/gcc/nios2-elf/4.1.2/../../../../nios2-elf/lib\libc.a(lib_a-sbrkr.o) (sbrk)
../transmitter_test_bsp/\libucosii_bsp.a(alt_write.o)
                              c:/altera/12.1sp1/nios2eds/bin/gnu/h-i686-mingw32/bin/../lib/gcc/nios2-elf/4.1.2/../../../../nios2-elf/lib\libc.a(lib_a-writer.o) (write)
../transmitter_test_bsp/\libucosii_bsp.a(alt_env_lock.o)
                              ../transmitter_test_bsp/\libucosii_bsp.a(alt_main.o) (alt_envsem)
../transmitter_test_bsp/\libucosii_bsp.a(alt_malloc_lock.o)
                              c:/altera/12.1sp1/nios2eds/bin/gnu/h-i686-mingw32/bin/../lib/gcc/nios2-elf/4.1.2/../../../../nios2-elf/lib\libc.a(lib_a-mallocr.o) (__malloc_lock)
../transmitter_test_bsp/\libucosii_bsp.a(os_core.o)
                              ../transmitter_test_bsp/\libucosii_bsp.a(alt_main.o) (OSInit)
../transmitter_test_bsp/\libucosii_bsp.a(os_dbg.o)
                              ../transmitter_test_bsp/\libucosii_bsp.a(os_core.o) (OSDebugInit)
../transmitter_test_bsp/\libucosii_bsp.a(os_flag.o)
                              ../transmitter_test_bsp/\libucosii_bsp.a(os_core.o) (OS_FlagInit)
../transmitter_test_bsp/\libucosii_bsp.a(os_mem.o)
                              ../transmitter_test_bsp/\libucosii_bsp.a(os_core.o) (OS_MemInit)
../transmitter_test_bsp/\libucosii_bsp.a(os_q.o)
                              ../transmitter_test_bsp/\libucosii_bsp.a(os_core.o) (OS_QInit)
../transmitter_test_bsp/\libucosii_bsp.a(os_sem.o)
                              obj/default/transmitterInterface.o (OSSemCreate)
../transmitter_test_bsp/\libucosii_bsp.a(os_task.o)
                              obj/default/transmitter_test.o (OSTaskCreateExt)
../transmitter_test_bsp/\libucosii_bsp.a(os_time.o)
                              ../transmitter_test_bsp/\libucosii_bsp.a(os_core.o) (OSTimeDly)
../transmitter_test_bsp/\libucosii_bsp.a(alt_sys_init.o)
                              ../transmitter_test_bsp/\libucosii_bsp.a(alt_main.o) (alt_irq_init)
../transmitter_test_bsp/\libucosii_bsp.a(altera_avalon_epcs_flash_controller.o)
                              ../transmitter_test_bsp/\libucosii_bsp.a(alt_sys_init.o) (alt_epcs_flash_init)
../transmitter_test_bsp/\libucosii_bsp.a(altera_avalon_jtag_uart_fd.o)
                              ../transmitter_test_bsp/\libucosii_bsp.a(alt_sys_init.o) (altera_avalon_jtag_uart_read_fd)
../transmitter_test_bsp/\libucosii_bsp.a(altera_avalon_jtag_uart_init.o)
                              ../transmitter_test_bsp/\libucosii_bsp.a(alt_sys_init.o) (altera_avalon_jtag_uart_init)
../transmitter_test_bsp/\libucosii_bsp.a(altera_avalon_jtag_uart_ioctl.o)
                              ../transmitter_test_bsp/\libucosii_bsp.a(altera_avalon_jtag_uart_fd.o) (altera_avalon_jtag_uart_ioctl)
../transmitter_test_bsp/\libucosii_bsp.a(altera_avalon_jtag_uart_read.o)
                              ../transmitter_test_bsp/\libucosii_bsp.a(altera_avalon_jtag_uart_fd.o) (altera_avalon_jtag_uart_read)
../transmitter_test_bsp/\libucosii_bsp.a(altera_avalon_jtag_uart_write.o)
                              ../transmitter_test_bsp/\libucosii_bsp.a(altera_avalon_jtag_uart_fd.o) (altera_avalon_jtag_uart_write)
../transmitter_test_bsp/\libucosii_bsp.a(altera_avalon_timer_sc.o)
                              ../transmitter_test_bsp/\libucosii_bsp.a(alt_sys_init.o) (alt_avalon_timer_sc_init)
../transmitter_test_bsp/\libucosii_bsp.a(epcs_commands.o)
                              ../transmitter_test_bsp/\libucosii_bsp.a(altera_avalon_epcs_flash_controller.o) (epcs_sector_erase)
../transmitter_test_bsp/\libucosii_bsp.a(alt_alarm_start.o)
                              ../transmitter_test_bsp/\libucosii_bsp.a(altera_avalon_jtag_uart_init.o) (alt_alarm_start)
../transmitter_test_bsp/\libucosii_bsp.a(alt_dcache_flush_all.o)
                              ../transmitter_test_bsp/\libucosii_bsp.a(alt_load.o) (alt_dcache_flush_all)
../transmitter_test_bsp/\libucosii_bsp.a(alt_dev_llist_insert.o)
                              ../transmitter_test_bsp/\libucosii_bsp.a(alt_sys_init.o) (alt_dev_llist_insert)
../transmitter_test_bsp/\libucosii_bsp.a(alt_do_ctors.o)
                              ../transmitter_test_bsp/\libucosii_bsp.a(alt_main.o) (_do_ctors)
../transmitter_test_bsp/\libucosii_bsp.a(alt_do_dtors.o)
                              ../transmitter_test_bsp/\libucosii_bsp.a(alt_main.o) (_do_dtors)
../transmitter_test_bsp/\libucosii_bsp.a(alt_flash_dev.o)
                              ../transmitter_test_bsp/\libucosii_bsp.a(altera_avalon_epcs_flash_controller.o) (alt_flash_dev_list)
../transmitter_test_bsp/\libucosii_bsp.a(alt_icache_flush_all.o)
                              ../transmitter_test_bsp/\libucosii_bsp.a(alt_load.o) (alt_icache_flush_all)
../transmitter_test_bsp/\libucosii_bsp.a(alt_iic.o)
                              ../transmitter_test_bsp/\libucosii_bsp.a(altera_avalon_jtag_uart_init.o) (alt_ic_isr_register)
../transmitter_test_bsp/\libucosii_bsp.a(alt_iic_isr_register.o)
                              ../transmitter_test_bsp/\libucosii_bsp.a(alt_iic.o) (alt_iic_isr_register)
../transmitter_test_bsp/\libucosii_bsp.a(alt_io_redirect.o)
                              ../transmitter_test_bsp/\libucosii_bsp.a(alt_main.o) (alt_io_redirect)
../transmitter_test_bsp/\libucosii_bsp.a(alt_irq_entry.o)
                              ../transmitter_test_bsp/\libucosii_bsp.a(alt_iic_isr_register.o) (alt_irq_entry)
../transmitter_test_bsp/\libucosii_bsp.a(alt_irq_handler.o)
                              ../transmitter_test_bsp/\libucosii_bsp.a(alt_iic_isr_register.o) (alt_irq_handler)
../transmitter_test_bsp/\libucosii_bsp.a(alt_irq_vars.o)
                              ../transmitter_test_bsp/\libucosii_bsp.a(alt_iic.o) (alt_irq_active)
../transmitter_test_bsp/\libucosii_bsp.a(alt_open.o)
                              ../transmitter_test_bsp/\libucosii_bsp.a(alt_io_redirect.o) (open)
../transmitter_test_bsp/\libucosii_bsp.a(alt_tick.o)
                              ../transmitter_test_bsp/\libucosii_bsp.a(altera_avalon_jtag_uart_init.o) (_alt_tick_rate)
../transmitter_test_bsp/\libucosii_bsp.a(altera_nios2_qsys_irq.o)
                              ../transmitter_test_bsp/\libucosii_bsp.a(alt_sys_init.o) (altera_nios2_qsys_irq_init)
../transmitter_test_bsp/\libucosii_bsp.a(os_cpu_a.o)
                              ../transmitter_test_bsp/\libucosii_bsp.a(os_core.o) (OSIntCtxSw)
../transmitter_test_bsp/\libucosii_bsp.a(os_cpu_c.o)
                              ../transmitter_test_bsp/\libucosii_bsp.a(os_task.o) (OSTaskStkInit)
../transmitter_test_bsp/\libucosii_bsp.a(altera_avalon_spi.o)
                              ../transmitter_test_bsp/\libucosii_bsp.a(epcs_commands.o) (alt_avalon_spi_command)
../transmitter_test_bsp/\libucosii_bsp.a(alt_exception_entry.o)
                              ../transmitter_test_bsp/\libucosii_bsp.a(alt_irq_entry.o) (alt_exception)
../transmitter_test_bsp/\libucosii_bsp.a(alt_find_dev.o)
                              ../transmitter_test_bsp/\libucosii_bsp.a(alt_flash_dev.o) (alt_find_dev)
../transmitter_test_bsp/\libucosii_bsp.a(alt_find_file.o)
                              ../transmitter_test_bsp/\libucosii_bsp.a(alt_open.o) (alt_find_file)
../transmitter_test_bsp/\libucosii_bsp.a(alt_get_fd.o)
                              ../transmitter_test_bsp/\libucosii_bsp.a(alt_open.o) (alt_get_fd)
../transmitter_test_bsp/\libucosii_bsp.a(alt_icache_flush.o)
                              ../transmitter_test_bsp/\libucosii_bsp.a(alt_icache_flush_all.o) (alt_icache_flush)
c:/altera/12.1sp1/nios2eds/bin/gnu/h-i686-mingw32/bin/../lib/gcc/nios2-elf/4.1.2/../../../../nios2-elf/lib\libc.a(lib_a-atexit.o)
                              ../transmitter_test_bsp/\libucosii_bsp.a(alt_main.o) (atexit)
c:/altera/12.1sp1/nios2eds/bin/gnu/h-i686-mingw32/bin/../lib/gcc/nios2-elf/4.1.2/../../../../nios2-elf/lib\libc.a(lib_a-exit.o)
                              ../transmitter_test_bsp/\libucosii_bsp.a(alt_main.o) (exit)
c:/altera/12.1sp1/nios2eds/bin/gnu/h-i686-mingw32/bin/../lib/gcc/nios2-elf/4.1.2/../../../../nios2-elf/lib\libc.a(lib_a-memcmp.o)
                              ../transmitter_test_bsp/\libucosii_bsp.a(altera_avalon_epcs_flash_controller.o) (memcmp)
c:/altera/12.1sp1/nios2eds/bin/gnu/h-i686-mingw32/bin/../lib/gcc/nios2-elf/4.1.2/../../../../nios2-elf/lib\libc.a(lib_a-__atexit.o)
                              c:/altera/12.1sp1/nios2eds/bin/gnu/h-i686-mingw32/bin/../lib/gcc/nios2-elf/4.1.2/../../../../nios2-elf/lib\libc.a(lib_a-atexit.o) (__register_exitproc)
c:/altera/12.1sp1/nios2eds/bin/gnu/h-i686-mingw32/bin/../lib/gcc/nios2-elf/4.1.2/../../../../nios2-elf/lib\libc.a(lib_a-__call_atexit.o)
                              c:/altera/12.1sp1/nios2eds/bin/gnu/h-i686-mingw32/bin/../lib/gcc/nios2-elf/4.1.2/../../../../nios2-elf/lib\libc.a(lib_a-exit.o) (__call_exitprocs)
c:/altera/12.1sp1/nios2eds/bin/gnu/h-i686-mingw32/bin/../lib/gcc/nios2-elf/4.1.2\libgcc.a(lib2-divmod.o)
                              ../transmitter_test_bsp/\libucosii_bsp.a(os_core.o) (__udivsi3)
../transmitter_test_bsp/\libucosii_bsp.a(alt_exit.o)
                              c:/altera/12.1sp1/nios2eds/bin/gnu/h-i686-mingw32/bin/../lib/gcc/nios2-elf/4.1.2/../../../../nios2-elf/lib\libc.a(lib_a-exit.o) (_exit)

Allocating common symbols
Common symbol       size              file

alt_irq             0x100             ../transmitter_test_bsp/\libucosii_bsp.a(alt_irq_handler.o)
OSLockNesting       0x1               ../transmitter_test_bsp/\libucosii_bsp.a(os_core.o)
OSRunning           0x1               ../transmitter_test_bsp/\libucosii_bsp.a(os_core.o)
OSIdleCtr           0x4               ../transmitter_test_bsp/\libucosii_bsp.a(os_core.o)
OSPrioHighRdy       0x1               ../transmitter_test_bsp/\libucosii_bsp.a(os_core.o)
errno               0x4               c:/altera/12.1sp1/nios2eds/bin/gnu/h-i686-mingw32/bin/../lib/gcc/nios2-elf/4.1.2/../../../../nios2-elf/lib\libc.a(lib_a-int_errno.o)
alt_heapsem         0x4               ../transmitter_test_bsp/\libucosii_bsp.a(alt_malloc_lock.o)
OSFlagTbl           0x370             ../transmitter_test_bsp/\libucosii_bsp.a(os_core.o)
OSPrioCur           0x1               ../transmitter_test_bsp/\libucosii_bsp.a(os_core.o)
OSTCBList           0x4               ../transmitter_test_bsp/\libucosii_bsp.a(os_core.o)
alt_fd_list_lock    0x4               ../transmitter_test_bsp/\libucosii_bsp.a(alt_dev.o)
OSMemTbl            0xc30             ../transmitter_test_bsp/\libucosii_bsp.a(os_core.o)
OSTickStepState     0x1               ../transmitter_test_bsp/\libucosii_bsp.a(os_core.o)
OSTaskStatStk       0x800             ../transmitter_test_bsp/\libucosii_bsp.a(os_core.o)
OSCtxSwCtr          0x4               ../transmitter_test_bsp/\libucosii_bsp.a(os_core.o)
OSIdleCtrMax        0x4               ../transmitter_test_bsp/\libucosii_bsp.a(os_core.o)
OSTCBFreeList       0x4               ../transmitter_test_bsp/\libucosii_bsp.a(os_core.o)
OSCPUUsage          0x1               ../transmitter_test_bsp/\libucosii_bsp.a(os_core.o)
OSTaskCtr           0x1               ../transmitter_test_bsp/\libucosii_bsp.a(os_core.o)
OSMemFreeList       0x4               ../transmitter_test_bsp/\libucosii_bsp.a(os_core.o)
OSQTbl              0x1e0             ../transmitter_test_bsp/\libucosii_bsp.a(os_core.o)
OSTCBHighRdy        0x4               ../transmitter_test_bsp/\libucosii_bsp.a(os_core.o)
OSQFreeList         0x4               ../transmitter_test_bsp/\libucosii_bsp.a(os_core.o)
OSRdyGrp            0x1               ../transmitter_test_bsp/\libucosii_bsp.a(os_core.o)
_atexit0            0x190             c:/altera/12.1sp1/nios2eds/bin/gnu/h-i686-mingw32/bin/../lib/gcc/nios2-elf/4.1.2/../../../../nios2-elf/lib\libc.a(lib_a-atexit.o)
OSRdyTbl            0x3               ../transmitter_test_bsp/\libucosii_bsp.a(os_core.o)
OSEventFreeList     0x4               ../transmitter_test_bsp/\libucosii_bsp.a(os_core.o)
OSIntNesting        0x1               ../transmitter_test_bsp/\libucosii_bsp.a(os_core.o)
OSTCBCur            0x4               ../transmitter_test_bsp/\libucosii_bsp.a(os_core.o)
OSTime              0x4               ../transmitter_test_bsp/\libucosii_bsp.a(os_core.o)
OSTaskIdleStk       0x800             ../transmitter_test_bsp/\libucosii_bsp.a(os_core.o)
OSEventTbl          0xb40             ../transmitter_test_bsp/\libucosii_bsp.a(os_core.o)
OSTCBTbl            0x510             ../transmitter_test_bsp/\libucosii_bsp.a(os_core.o)
OSFlagFreeList      0x4               ../transmitter_test_bsp/\libucosii_bsp.a(os_core.o)
OSStatRdy           0x1               ../transmitter_test_bsp/\libucosii_bsp.a(os_core.o)
OSTCBPrioTbl        0x54              ../transmitter_test_bsp/\libucosii_bsp.a(os_core.o)
alt_envsem          0x4               ../transmitter_test_bsp/\libucosii_bsp.a(alt_env_lock.o)
OSIdleCtrRun        0x4               ../transmitter_test_bsp/\libucosii_bsp.a(os_core.o)

Discarded input sections

 .group         0x00000000        0x8 obj/default/transmitterInterface.o
 .group         0x00000000        0x8 obj/default/transmitterInterface.o
 .group         0x00000000        0x8 obj/default/transmitterInterface.o
 .group         0x00000000        0x8 c:/altera/12.1sp1/nios2eds/bin/gnu/h-i686-mingw32/bin/../lib/gcc/nios2-elf/4.1.2/../../../../nios2-elf/lib\libstdc++.a(class_type_info.o)
 .group         0x00000000        0x8 c:/altera/12.1sp1/nios2eds/bin/gnu/h-i686-mingw32/bin/../lib/gcc/nios2-elf/4.1.2/../../../../nios2-elf/lib\libstdc++.a(class_type_info.o)
 .group         0x00000000        0x8 c:/altera/12.1sp1/nios2eds/bin/gnu/h-i686-mingw32/bin/../lib/gcc/nios2-elf/4.1.2/../../../../nios2-elf/lib\libstdc++.a(class_type_info.o)
 .group         0x00000000        0x8 c:/altera/12.1sp1/nios2eds/bin/gnu/h-i686-mingw32/bin/../lib/gcc/nios2-elf/4.1.2/../../../../nios2-elf/lib\libstdc++.a(si_class_type_info.o)
 .group         0x00000000        0x8 c:/altera/12.1sp1/nios2eds/bin/gnu/h-i686-mingw32/bin/../lib/gcc/nios2-elf/4.1.2/../../../../nios2-elf/lib\libstdc++.a(si_class_type_info.o)
 .group         0x00000000        0x8 c:/altera/12.1sp1/nios2eds/bin/gnu/h-i686-mingw32/bin/../lib/gcc/nios2-elf/4.1.2/../../../../nios2-elf/lib\libstdc++.a(si_class_type_info.o)
 .group         0x00000000        0x8 c:/altera/12.1sp1/nios2eds/bin/gnu/h-i686-mingw32/bin/../lib/gcc/nios2-elf/4.1.2/../../../../nios2-elf/lib\libstdc++.a(tinfo.o)
 .group         0x00000000        0x8 c:/altera/12.1sp1/nios2eds/bin/gnu/h-i686-mingw32/bin/../lib/gcc/nios2-elf/4.1.2/../../../../nios2-elf/lib\libstdc++.a(tinfo.o)
 .group         0x00000000        0x8 c:/altera/12.1sp1/nios2eds/bin/gnu/h-i686-mingw32/bin/../lib/gcc/nios2-elf/4.1.2/../../../../nios2-elf/lib\libstdc++.a(tinfo.o)

Memory Configuration

Name             Origin             Length             Attributes
reset            0x02000000         0x00000020
sdram            0x02000020         0x01ffffe0
epcs_flash_controller 0x04000800         0x00000800
*default*        0x00000000         0xffffffff

Linker script and memory map

LOAD ../transmitter_test_bsp//obj/HAL/src/crt0.o
LOAD obj/default/transmitterInterface.o
LOAD obj/default/transmitter_test.o
LOAD c:/altera/12.1sp1/nios2eds/bin/gnu/h-i686-mingw32/bin/../lib/gcc/nios2-elf/4.1.2/../../../../nios2-elf/lib\libstdc++.a
LOAD c:/altera/12.1sp1/nios2eds/bin/gnu/h-i686-mingw32/bin/../lib/gcc/nios2-elf/4.1.2/../../../../nios2-elf/lib\libm.a
LOAD c:/altera/12.1sp1/nios2eds/bin/gnu/h-i686-mingw32/bin/../lib/gcc/nios2-elf/4.1.2\libgcc.a
START GROUP
LOAD c:/altera/12.1sp1/nios2eds/bin/gnu/h-i686-mingw32/bin/../lib/gcc/nios2-elf/4.1.2/../../../../nios2-elf/lib\libc.a
LOAD c:/altera/12.1sp1/nios2eds/bin/gnu/h-i686-mingw32/bin/../lib/gcc/nios2-elf/4.1.2\libgcc.a
LOAD ../transmitter_test_bsp/\libucosii_bsp.a
END GROUP
LOAD c:/altera/12.1sp1/nios2eds/bin/gnu/h-i686-mingw32/bin/../lib/gcc/nios2-elf/4.1.2\libgcc.a
                0x02000000                __alt_mem_sdram = 0x2000000
                0x04000800                __alt_mem_epcs_flash_controller = 0x4000800

.entry          0x02000000       0x20
 *(.entry)
 .entry         0x02000000       0x20 ../transmitter_test_bsp//obj/HAL/src/crt0.o
                0x02000000                __reset

.exceptions     0x02000020      0x19c
                0x02000020                PROVIDE (__ram_exceptions_start, ABSOLUTE (.))
                0x02000020                . = ALIGN (0x20)
 *(.irq)
 *(.exceptions.entry.label)
 .exceptions.entry.label
                0x02000020        0x0 ../transmitter_test_bsp/\libucosii_bsp.a(alt_irq_entry.o)
                0x02000020                alt_irq_entry
 .exceptions.entry.label
                0x02000020        0x0 ../transmitter_test_bsp/\libucosii_bsp.a(alt_exception_entry.o)
                0x02000020                alt_exception
 *(.exceptions.entry.user)
 *(.exceptions.entry)
 .exceptions.entry
                0x02000020       0x54 ../transmitter_test_bsp/\libucosii_bsp.a(alt_exception_entry.o)
 *(.exceptions.irqtest.user)
 *(.exceptions.irqtest)
 .exceptions.irqtest
                0x02000074       0x10 ../transmitter_test_bsp/\libucosii_bsp.a(alt_irq_entry.o)
 *(.exceptions.irqhandler.user)
 *(.exceptions.irqhandler)
 .exceptions.irqhandler
                0x02000084        0x4 ../transmitter_test_bsp/\libucosii_bsp.a(alt_irq_entry.o)
 *(.exceptions.irqreturn.user)
 *(.exceptions.irqreturn)
 .exceptions.irqreturn
                0x02000088        0x4 ../transmitter_test_bsp/\libucosii_bsp.a(alt_irq_entry.o)
 *(.exceptions.notirq.label)
 .exceptions.notirq.label
                0x0200008c        0x0 ../transmitter_test_bsp/\libucosii_bsp.a(alt_irq_entry.o)
 *(.exceptions.notirq.user)
 *(.exceptions.notirq)
 .exceptions.notirq
                0x0200008c        0x8 ../transmitter_test_bsp/\libucosii_bsp.a(alt_exception_entry.o)
 *(.exceptions.soft.user)
 *(.exceptions.soft)
 *(.exceptions.unknown.user)
 *(.exceptions.unknown)
 .exceptions.unknown
                0x02000094        0x4 ../transmitter_test_bsp/\libucosii_bsp.a(alt_exception_entry.o)
 *(.exceptions.exit.label)
 .exceptions.exit.label
                0x02000098        0x0 ../transmitter_test_bsp/\libucosii_bsp.a(alt_irq_entry.o)
 .exceptions.exit.label
                0x02000098        0x0 ../transmitter_test_bsp/\libucosii_bsp.a(alt_exception_entry.o)
 *(.exceptions.exit.user)
 *(.exceptions.exit)
 .exceptions.exit
                0x02000098       0x54 ../transmitter_test_bsp/\libucosii_bsp.a(alt_exception_entry.o)
 *(.exceptions)
 .exceptions    0x020000ec       0xd0 ../transmitter_test_bsp/\libucosii_bsp.a(alt_irq_handler.o)
                0x020000ec                alt_irq_handler
                0x020001bc                PROVIDE (__ram_exceptions_end, ABSOLUTE (.))
                0x02000020                PROVIDE (__flash_exceptions_start, LOADADDR (.exceptions))

.text           0x020001bc    0x10298
                0x020001bc                PROVIDE (stext, ABSOLUTE (.))
 *(.interp)
 *(.hash)
 *(.dynsym)
 *(.dynstr)
 *(.gnu.version)
 *(.gnu.version_d)
 *(.gnu.version_r)
 *(.rel.init)
 *(.rela.init)
 *(.rel.text .rel.text.* .rel.gnu.linkonce.t.*)
 *(.rela.text .rela.text.* .rela.gnu.linkonce.t.*)
 *(.rel.fini)
 *(.rela.fini)
 *(.rel.rodata .rel.rodata.* .rel.gnu.linkonce.r.*)
 *(.rela.rodata .rela.rodata.* .rela.gnu.linkonce.r.*)
 *(.rel.data .rel.data.* .rel.gnu.linkonce.d.*)
 *(.rela.data .rela.data.* .rela.gnu.linkonce.d.*)
 *(.rel.tdata .rel.tdata.* .rel.gnu.linkonce.td.*)
 *(.rela.tdata .rela.tdata.* .rela.gnu.linkonce.td.*)
 *(.rel.tbss .rel.tbss.* .rel.gnu.linkonce.tb.*)
 *(.rela.tbss .rela.tbss.* .rela.gnu.linkonce.tb.*)
 *(.rel.ctors)
 *(.rela.ctors)
 *(.rel.dtors)
 *(.rela.dtors)
 *(.rel.got)
 *(.rela.got)
 *(.rel.sdata .rel.sdata.* .rel.gnu.linkonce.s.*)
 *(.rela.sdata .rela.sdata.* .rela.gnu.linkonce.s.*)
 *(.rel.sbss .rel.sbss.* .rel.gnu.linkonce.sb.*)
 *(.rela.sbss .rela.sbss.* .rela.gnu.linkonce.sb.*)
 *(.rel.sdata2 .rel.sdata2.* .rel.gnu.linkonce.s2.*)
 *(.rela.sdata2 .rela.sdata2.* .rela.gnu.linkonce.s2.*)
 *(.rel.sbss2 .rel.sbss2.* .rel.gnu.linkonce.sb2.*)
 *(.rela.sbss2 .rela.sbss2.* .rela.gnu.linkonce.sb2.*)
 *(.rel.bss .rel.bss.* .rel.gnu.linkonce.b.*)
 *(.rela.bss .rela.bss.* .rela.gnu.linkonce.b.*)
 *(.rel.plt)
 *(.rela.plt)
 *(.rel.dyn)
 *(.init)
 *(.plt)
 *(.text .stub .text.* .gnu.linkonce.t.*)
 .text          0x020001bc       0x4c ../transmitter_test_bsp//obj/HAL/src/crt0.o
                0x020001bc                _start
 .text          0x02000208      0x55c obj/default/transmitterInterface.o
                0x02000208                TransmitterInterface::validateTurn(signed char, signed char)
                0x02000250                TransmitterInterface::validateMove(signed char, signed char)
                0x02000298                TransmitterInterface::turnRight()
                0x02000314                TransmitterInterface::moveOff()
                0x0200039c                TransmitterInterface::turnOff()
                0x02000424                TransmitterInterface::moveReverse()
                0x020004ac                TransmitterInterface::moveForward()
                0x02000534                TransmitterInterface::turnLeft()
                0x020005bc                TransmitterInterface::~TransmitterInterface()
                0x0200060c                TransmitterInterface::~TransmitterInterface()
                0x0200065c                TransmitterInterface::~TransmitterInterface()
                0x020006ac                TransmitterInterface::TransmitterInterface(void*)
                0x02000708                TransmitterInterface::TransmitterInterface(void*)
 .text          0x02000764      0x268 obj/default/transmitter_test.o
                0x02000840                main
                0x020008ac                task1(void*)
 .text          0x020009cc      0x1bc c:/altera/12.1sp1/nios2eds/bin/gnu/h-i686-mingw32/bin/../lib/gcc/nios2-elf/4.1.2/../../../../nios2-elf/lib\libstdc++.a(class_type_info.o)
                0x020009cc                __cxxabiv1::__class_type_info::__do_upcast(__cxxabiv1::__class_type_info const*, void**) const
                0x02000a38                __cxxabiv1::__class_type_info::__do_find_public_src(long, void const*, __cxxabiv1::__class_type_info const*, void const*) const
                0x02000a58                __cxxabiv1::__class_type_info::~__class_type_info()
                0x02000a8c                __cxxabiv1::__class_type_info::~__class_type_info()
                0x02000a9c                __cxxabiv1::__class_type_info::~__class_type_info()
                0x02000aac                __cxxabiv1::__class_type_info::__do_catch(std::type_info const*, void**, unsigned int) const
                0x02000b0c                __cxxabiv1::__class_type_info::__do_upcast(__cxxabiv1::__class_type_info const*, void const*, __cxxabiv1::__class_type_info::__upcast_result&) const
                0x02000b3c                __cxxabiv1::__class_type_info::__do_dyncast(long, __cxxabiv1::__class_type_info::__sub_kind, __cxxabiv1::__class_type_info const*, void const*, __cxxabiv1::__class_type_info const*, void const*, __cxxabiv1::__class_type_info::__dyncast_result&) const
 .text          0x02000b88        0xc c:/altera/12.1sp1/nios2eds/bin/gnu/h-i686-mingw32/bin/../lib/gcc/nios2-elf/4.1.2/../../../../nios2-elf/lib\libstdc++.a(del_op.o)
                0x02000b88                operator delete(void*)
 .text          0x02000b94      0x1c8 c:/altera/12.1sp1/nios2eds/bin/gnu/h-i686-mingw32/bin/../lib/gcc/nios2-elf/4.1.2/../../../../nios2-elf/lib\libstdc++.a(si_class_type_info.o)
                0x02000b94                __cxxabiv1::__si_class_type_info::__do_upcast(__cxxabiv1::__class_type_info const*, void const*, __cxxabiv1::__class_type_info::__upcast_result&) const
                0x02000c0c                __cxxabiv1::__si_class_type_info::~__si_class_type_info()
                0x02000c40                __cxxabiv1::__si_class_type_info::~__si_class_type_info()
                0x02000c50                __cxxabiv1::__si_class_type_info::~__si_class_type_info()
                0x02000c60                __cxxabiv1::__si_class_type_info::__do_find_public_src(long, void const*, __cxxabiv1::__class_type_info const*, void const*) const
                0x02000c94                __cxxabiv1::__si_class_type_info::__do_dyncast(long, __cxxabiv1::__class_type_info::__sub_kind, __cxxabiv1::__class_type_info const*, void const*, __cxxabiv1::__class_type_info const*, void const*, __cxxabiv1::__class_type_info::__dyncast_result&) const
 .text          0x02000d5c       0x58 c:/altera/12.1sp1/nios2eds/bin/gnu/h-i686-mingw32/bin/../lib/gcc/nios2-elf/4.1.2/../../../../nios2-elf/lib\libstdc++.a(tinfo.o)
                0x02000d5c                std::type_info::__is_pointer_p() const
                0x02000d64                std::type_info::__is_function_p() const
                0x02000d6c                std::type_info::__do_catch(std::type_info const*, void**, unsigned int) const
                0x02000d7c                std::type_info::__do_upcast(__cxxabiv1::__class_type_info const*, void**) const
                0x02000d84                std::type_info::~type_info()
                0x02000d94                std::type_info::~type_info()
                0x02000da4                std::type_info::~type_info()
 .text          0x02000db4       0x28 c:/altera/12.1sp1/nios2eds/bin/gnu/h-i686-mingw32/bin/../lib/gcc/nios2-elf/4.1.2/../../../../nios2-elf/lib\libc.a(lib_a-malloc.o)
                0x02000db4                free
                0x02000dc8                malloc
 .text          0x02000ddc      0x740 c:/altera/12.1sp1/nios2eds/bin/gnu/h-i686-mingw32/bin/../lib/gcc/nios2-elf/4.1.2/../../../../nios2-elf/lib\libc.a(lib_a-mallocr.o)
                0x02000ddc                _malloc_r
 .text          0x0200151c       0xb4 c:/altera/12.1sp1/nios2eds/bin/gnu/h-i686-mingw32/bin/../lib/gcc/nios2-elf/4.1.2/../../../../nios2-elf/lib\libc.a(lib_a-puts.o)
                0x0200151c                _puts_r
                0x020015bc                puts
 .text          0x020015d0       0x70 c:/altera/12.1sp1/nios2eds/bin/gnu/h-i686-mingw32/bin/../lib/gcc/nios2-elf/4.1.2/../../../../nios2-elf/lib\libc.a(lib_a-sbrkr.o)
                0x020015d0                _sbrk_r
 .text          0x02001640       0x74 c:/altera/12.1sp1/nios2eds/bin/gnu/h-i686-mingw32/bin/../lib/gcc/nios2-elf/4.1.2/../../../../nios2-elf/lib\libc.a(lib_a-strlen.o)
                0x02001640                strlen
 .text          0x020016b4      0x440 c:/altera/12.1sp1/nios2eds/bin/gnu/h-i686-mingw32/bin/../lib/gcc/nios2-elf/4.1.2/../../../../nios2-elf/lib\libc.a(lib_a-freer.o)
                0x020016b4                _malloc_trim_r
                0x020017e0                _free_r
 .text          0x02001af4      0x49c c:/altera/12.1sp1/nios2eds/bin/gnu/h-i686-mingw32/bin/../lib/gcc/nios2-elf/4.1.2/../../../../nios2-elf/lib\libc.a(lib_a-fvwrite.o)
                0x02001af4                __sfvwrite_r
 .text          0x02001f90        0x0 c:/altera/12.1sp1/nios2eds/bin/gnu/h-i686-mingw32/bin/../lib/gcc/nios2-elf/4.1.2/../../../../nios2-elf/lib\libc.a(lib_a-impure.o)
 .text          0x02001f90        0x0 c:/altera/12.1sp1/nios2eds/bin/gnu/h-i686-mingw32/bin/../lib/gcc/nios2-elf/4.1.2/../../../../nios2-elf/lib\libc.a(lib_a-int_errno.o)
 .text          0x02001f90       0xe4 c:/altera/12.1sp1/nios2eds/bin/gnu/h-i686-mingw32/bin/../lib/gcc/nios2-elf/4.1.2/../../../../nios2-elf/lib\libc.a(lib_a-memchr.o)
                0x02001f90                memchr
 .text          0x02002074       0xa0 c:/altera/12.1sp1/nios2eds/bin/gnu/h-i686-mingw32/bin/../lib/gcc/nios2-elf/4.1.2/../../../../nios2-elf/lib\libc.a(lib_a-memcpy.o)
                0x02002074                memcpy
 .text          0x02002114       0xe0 c:/altera/12.1sp1/nios2eds/bin/gnu/h-i686-mingw32/bin/../lib/gcc/nios2-elf/4.1.2/../../../../nios2-elf/lib\libc.a(lib_a-memmove.o)
                0x02002114                memmove
 .text          0x020021f4      0x5f4 c:/altera/12.1sp1/nios2eds/bin/gnu/h-i686-mingw32/bin/../lib/gcc/nios2-elf/4.1.2/../../../../nios2-elf/lib\libc.a(lib_a-reallocr.o)
                0x020021f4                _realloc_r
 .text          0x020027e8      0x13c c:/altera/12.1sp1/nios2eds/bin/gnu/h-i686-mingw32/bin/../lib/gcc/nios2-elf/4.1.2/../../../../nios2-elf/lib\libc.a(lib_a-wsetup.o)
                0x020027e8                __swsetup_r
 .text          0x02002924      0x230 c:/altera/12.1sp1/nios2eds/bin/gnu/h-i686-mingw32/bin/../lib/gcc/nios2-elf/4.1.2/../../../../nios2-elf/lib\libc.a(lib_a-fflush.o)
                0x02002924                _fflush_r
                0x02002b20                fflush
 .text          0x02002b54      0x2c0 c:/altera/12.1sp1/nios2eds/bin/gnu/h-i686-mingw32/bin/../lib/gcc/nios2-elf/4.1.2/../../../../nios2-elf/lib\libc.a(lib_a-findfp.o)
                0x02002bac                __sfp_lock_acquire
                0x02002bb0                __sfp_lock_release
                0x02002bb4                __sinit_lock_acquire
                0x02002bb8                __sinit_lock_release
                0x02002bbc                __sinit
                0x02002c70                __fp_unlock_all
                0x02002c88                __fp_lock_all
                0x02002ca0                _cleanup_r
                0x02002cac                _cleanup
                0x02002cbc                __sfmoreglue
                0x02002d24                __sfp
 .text          0x02002e14      0x180 c:/altera/12.1sp1/nios2eds/bin/gnu/h-i686-mingw32/bin/../lib/gcc/nios2-elf/4.1.2/../../../../nios2-elf/lib\libc.a(lib_a-fwalk.o)
                0x02002e14                _fwalk_reent
                0x02002edc                _fwalk
 .text          0x02002f94      0x194 c:/altera/12.1sp1/nios2eds/bin/gnu/h-i686-mingw32/bin/../lib/gcc/nios2-elf/4.1.2/../../../../nios2-elf/lib\libc.a(lib_a-makebuf.o)
                0x02002f94                __smakebuf_r
 .text          0x02003128       0x98 c:/altera/12.1sp1/nios2eds/bin/gnu/h-i686-mingw32/bin/../lib/gcc/nios2-elf/4.1.2/../../../../nios2-elf/lib\libc.a(lib_a-memset.o)
                0x02003128                memset
 .text          0x020031c0      0x14c c:/altera/12.1sp1/nios2eds/bin/gnu/h-i686-mingw32/bin/../lib/gcc/nios2-elf/4.1.2/../../../../nios2-elf/lib\libc.a(lib_a-stdio.o)
                0x020031c0                __sclose
                0x020031c8                __sseek
                0x02003230                __swrite
                0x020032ac                __sread
 .text          0x0200330c       0x78 c:/altera/12.1sp1/nios2eds/bin/gnu/h-i686-mingw32/bin/../lib/gcc/nios2-elf/4.1.2/../../../../nios2-elf/lib\libc.a(lib_a-writer.o)
                0x0200330c                _write_r
 .text          0x02003384       0x70 c:/altera/12.1sp1/nios2eds/bin/gnu/h-i686-mingw32/bin/../lib/gcc/nios2-elf/4.1.2/../../../../nios2-elf/lib\libc.a(lib_a-closer.o)
                0x02003384                _close_r
 .text          0x020033f4      0x124 c:/altera/12.1sp1/nios2eds/bin/gnu/h-i686-mingw32/bin/../lib/gcc/nios2-elf/4.1.2/../../../../nios2-elf/lib\libc.a(lib_a-fclose.o)
                0x020033f4                _fclose_r
                0x02003504                fclose
 .text          0x02003518       0x74 c:/altera/12.1sp1/nios2eds/bin/gnu/h-i686-mingw32/bin/../lib/gcc/nios2-elf/4.1.2/../../../../nios2-elf/lib\libc.a(lib_a-fstatr.o)
                0x02003518                _fstat_r
 .text          0x0200358c       0x70 c:/altera/12.1sp1/nios2eds/bin/gnu/h-i686-mingw32/bin/../lib/gcc/nios2-elf/4.1.2/../../../../nios2-elf/lib\libc.a(lib_a-isattyr.o)
                0x0200358c                _isatty_r
 .text          0x020035fc       0x78 c:/altera/12.1sp1/nios2eds/bin/gnu/h-i686-mingw32/bin/../lib/gcc/nios2-elf/4.1.2/../../../../nios2-elf/lib\libc.a(lib_a-lseekr.o)
                0x020035fc                _lseek_r
 .text          0x02003674       0x78 c:/altera/12.1sp1/nios2eds/bin/gnu/h-i686-mingw32/bin/../lib/gcc/nios2-elf/4.1.2/../../../../nios2-elf/lib\libc.a(lib_a-readr.o)
                0x02003674                _read_r
 .text          0x020036ec      0x15c ../transmitter_test_bsp/\libucosii_bsp.a(alt_close.o)
                0x020036ec                close
 .text          0x02003848       0x2c ../transmitter_test_bsp/\libucosii_bsp.a(alt_dev.o)
 .text          0x02003874        0x0 ../transmitter_test_bsp/\libucosii_bsp.a(alt_errno.o)
 .text          0x02003874      0x134 ../transmitter_test_bsp/\libucosii_bsp.a(alt_fstat.o)
                0x02003874                fstat
 .text          0x020039a8      0x120 ../transmitter_test_bsp/\libucosii_bsp.a(alt_isatty.o)
                0x020039a8                isatty
 .text          0x02003ac8       0xec ../transmitter_test_bsp/\libucosii_bsp.a(alt_load.o)
                0x02003ac8                alt_load
 .text          0x02003bb4      0x150 ../transmitter_test_bsp/\libucosii_bsp.a(alt_lseek.o)
                0x02003bb4                lseek
 .text          0x02003d04       0xc8 ../transmitter_test_bsp/\libucosii_bsp.a(alt_main.o)
                0x02003d04                alt_main
 .text          0x02003dcc      0x180 ../transmitter_test_bsp/\libucosii_bsp.a(alt_read.o)
                0x02003dcc                read
 .text          0x02003f4c       0x60 ../transmitter_test_bsp/\libucosii_bsp.a(alt_release_fd.o)
                0x02003f4c                alt_release_fd
 .text          0x02003fac       0xbc ../transmitter_test_bsp/\libucosii_bsp.a(alt_sbrk.o)
                0x02003fac                sbrk
 .text          0x02004068      0x180 ../transmitter_test_bsp/\libucosii_bsp.a(alt_write.o)
                0x02004068                write
 .text          0x020041e8      0x108 ../transmitter_test_bsp/\libucosii_bsp.a(alt_env_lock.o)
                0x020041e8                __env_lock
                0x02004294                __env_unlock
 .text          0x020042f0      0x1d8 ../transmitter_test_bsp/\libucosii_bsp.a(alt_malloc_lock.o)
                0x020042f0                __malloc_lock
                0x020043f8                __malloc_unlock
 .text          0x020044c8     0x2128 ../transmitter_test_bsp/\libucosii_bsp.a(os_core.o)
                0x020044c8                OSEventNameGet
                0x020045f8                OSEventNameSet
                0x0200473c                OSEventPendMulti
                0x02004df0                OSInit
                0x02004e44                OSIntEnter
                0x02004ec0                OSIntExit
                0x02004fc0                OSSchedLock
                0x0200504c                OSSchedUnlock
                0x02005130                OSStart
                0x020051a0                OSStatInit
                0x0200524c                OSTimeTick
                0x0200548c                OSVersion
                0x020054ac                OS_Dummy
                0x020054c8                OS_EventTaskRdy
                0x0200565c                OS_EventTaskWait
                0x0200576c                OS_EventTaskWaitMulti
                0x020058c0                OS_EventTaskRemove
                0x02005978                OS_EventTaskRemoveMulti
                0x02005a7c                OS_EventWaitListInit
                0x02005e48                OS_MemClr
                0x02005e9c                OS_MemCopy
                0x02005f08                OS_Sched
                0x0200604c                OS_StrCopy
                0x020060cc                OS_StrLen
                0x02006124                OS_TaskIdle
                0x02006180                OS_TaskStat
                0x02006248                OS_TaskStatStkChk
                0x02006310                OS_TCBInit
 .text          0x020065f0      0x18c ../transmitter_test_bsp/\libucosii_bsp.a(os_dbg.o)
                0x020065f0                OSDebugInit
 .text          0x0200677c     0x193c ../transmitter_test_bsp/\libucosii_bsp.a(os_flag.o)
                0x0200677c                OSFlagAccept
                0x02006ab0                OSFlagCreate
                0x02006bec                OSFlagDel
                0x02006e94                OSFlagNameGet
                0x02006fd8                OSFlagNameSet
                0x0200712c                OSFlagPend
                0x02007770                OSFlagPendGetFlagsRdy
                0x020077d8                OSFlagPost
                0x02007b80                OSFlagQuery
                0x02007e18                OS_FlagInit
                0x0200800c                OS_FlagUnlink
 .text          0x020080b8      0x808 ../transmitter_test_bsp/\libucosii_bsp.a(os_mem.o)
                0x020080b8                OSMemCreate
                0x020082d4                OSMemGet
                0x020083d8                OSMemNameGet
                0x020084e4                OSMemNameSet
                0x02008604                OSMemPut
                0x020086f4                OSMemQuery
                0x020087f0                OS_MemInit
 .text          0x020088c0     0x1334 ../transmitter_test_bsp/\libucosii_bsp.a(os_q.o)
                0x020088c0                OSQAccept
                0x02008a14                OSQCreate
                0x02008c28                OSQDel
                0x02008f28                OSQFlush
                0x02008ff0                OSQPend
                0x02009310                OSQPendAbort
                0x0200948c                OSQPost
                0x0200960c                OSQPostFront
                0x02009794                OSQPostOpt
                0x020099c8                OSQQuery
                0x02009b48                OS_QInit
 .text          0x02009bf4      0xbc8 ../transmitter_test_bsp/\libucosii_bsp.a(os_sem.o)
                0x02009bf4                OSSemAccept
                0x02009cb4                OSSemCreate
                0x02009dc8                OSSemDel
                0x0200a068                OSSemPend
                0x0200a2e4                OSSemPendAbort
                0x0200a460                OSSemPost
                0x0200a588                OSSemQuery
                0x0200a6b8                OSSemSet
 .text          0x0200a7bc     0x1a40 ../transmitter_test_bsp/\libucosii_bsp.a(os_task.o)
                0x0200a7bc                OSTaskChangePrio
                0x0200ad30                OSTaskCreate
                0x0200af04                OSTaskCreateExt
                0x0200b104                OSTaskDel
                0x0200b510                OSTaskDelReq
                0x0200b680                OSTaskNameGet
                0x0200b838                OSTaskNameSet
                0x0200b9fc                OSTaskResume
                0x0200bc14                OSTaskStkChk
                0x0200be10                OSTaskSuspend
                0x0200c03c                OSTaskQuery
                0x0200c180                OS_TaskStkClr
 .text          0x0200c1fc      0x598 ../transmitter_test_bsp/\libucosii_bsp.a(os_time.o)
                0x0200c1fc                OSTimeDly
                0x0200c348                OSTimeDlyHMSM
                0x0200c4bc                OSTimeDlyResume
                0x0200c6cc                OSTimeGet
                0x0200c730                OSTimeSet
 .text          0x0200c794       0xe0 ../transmitter_test_bsp/\libucosii_bsp.a(alt_sys_init.o)
                0x0200c794                alt_irq_init
                0x0200c7c8                alt_sys_init
 .text          0x0200c874      0x9e4 ../transmitter_test_bsp/\libucosii_bsp.a(altera_avalon_epcs_flash_controller.o)
                0x0200c874                alt_epcs_flash_init
                0x0200cc90                alt_epcs_flash_write
                0x0200cf10                alt_epcs_flash_get_info
                0x0200cfa0                alt_epcs_flash_erase_block
                0x0200d0a4                alt_epcs_flash_write_block
                0x0200d1c0                alt_epcs_flash_read
 .text          0x0200d258      0x148 ../transmitter_test_bsp/\libucosii_bsp.a(altera_avalon_jtag_uart_fd.o)
                0x0200d258                altera_avalon_jtag_uart_read_fd
                0x0200d2b0                altera_avalon_jtag_uart_write_fd
                0x0200d308                altera_avalon_jtag_uart_close_fd
                0x0200d350                altera_avalon_jtag_uart_ioctl_fd
 .text          0x0200d3a0      0x584 ../transmitter_test_bsp/\libucosii_bsp.a(altera_avalon_jtag_uart_init.o)
                0x0200d3a0                altera_avalon_jtag_uart_init
                0x0200d8b0                altera_avalon_jtag_uart_close
 .text          0x0200d924       0xf4 ../transmitter_test_bsp/\libucosii_bsp.a(altera_avalon_jtag_uart_ioctl.o)
                0x0200d924                altera_avalon_jtag_uart_ioctl
 .text          0x0200da18      0x2c0 ../transmitter_test_bsp/\libucosii_bsp.a(altera_avalon_jtag_uart_read.o)
                0x0200da18                altera_avalon_jtag_uart_read
 .text          0x0200dcd8      0x2dc ../transmitter_test_bsp/\libucosii_bsp.a(altera_avalon_jtag_uart_write.o)
                0x0200dcd8                altera_avalon_jtag_uart_write
 .text          0x0200dfb4      0x100 ../transmitter_test_bsp/\libucosii_bsp.a(altera_avalon_timer_sc.o)
                0x0200e024                alt_avalon_timer_sc_init
 .text          0x0200e0b4      0x6d4 ../transmitter_test_bsp/\libucosii_bsp.a(epcs_commands.o)
                0x0200e0b4                epcs_read_status_register
                0x0200e114                epcs_sector_erase
                0x0200e27c                epcs_read_buffer
                0x0200e3c8                epcs_write_enable
                0x0200e418                epcs_write_status_register
                0x0200e47c                epcs_write_buffer
                0x0200e5ec                epcs_read_electronic_signature
                0x0200e658                epcs_read_device_id
                0x0200e6d8                epcs_enter_4_bytes_mode
                0x0200e730                epcs_exit_4_bytes_mode
 .text          0x0200e788      0x154 ../transmitter_test_bsp/\libucosii_bsp.a(alt_alarm_start.o)
                0x0200e788                alt_alarm_start
 .text          0x0200e8dc       0x44 ../transmitter_test_bsp/\libucosii_bsp.a(alt_dcache_flush_all.o)
                0x0200e8dc                alt_dcache_flush_all
 .text          0x0200e920      0x114 ../transmitter_test_bsp/\libucosii_bsp.a(alt_dev_llist_insert.o)
                0x0200e920                alt_dev_llist_insert
 .text          0x0200ea34       0x64 ../transmitter_test_bsp/\libucosii_bsp.a(alt_do_ctors.o)
                0x0200ea34                _do_ctors
 .text          0x0200ea98       0x64 ../transmitter_test_bsp/\libucosii_bsp.a(alt_do_dtors.o)
                0x0200ea98                _do_dtors
 .text          0x0200eafc       0xd0 ../transmitter_test_bsp/\libucosii_bsp.a(alt_flash_dev.o)
                0x0200eafc                alt_flash_open_dev
                0x0200eb78                alt_flash_close_dev
 .text          0x0200ebcc       0x30 ../transmitter_test_bsp/\libucosii_bsp.a(alt_icache_flush_all.o)
                0x0200ebcc                alt_icache_flush_all
 .text          0x0200ebfc      0x1d4 ../transmitter_test_bsp/\libucosii_bsp.a(alt_iic.o)
                0x0200ebfc                alt_ic_isr_register
                0x0200ec4c                alt_ic_irq_enable
                0x0200ece8                alt_ic_irq_disable
                0x0200ed88                alt_ic_irq_enabled
 .text          0x0200edd0       0xf8 ../transmitter_test_bsp/\libucosii_bsp.a(alt_iic_isr_register.o)
                0x0200edd0                alt_iic_isr_register
 .text          0x0200eec8      0x13c ../transmitter_test_bsp/\libucosii_bsp.a(alt_io_redirect.o)
                0x0200ef8c                alt_io_redirect
 .text          0x0200f004        0x0 ../transmitter_test_bsp/\libucosii_bsp.a(alt_irq_entry.o)
 .text          0x0200f004        0x0 ../transmitter_test_bsp/\libucosii_bsp.a(alt_irq_handler.o)
 .text          0x0200f004        0x0 ../transmitter_test_bsp/\libucosii_bsp.a(alt_irq_vars.o)
 .text          0x0200f004      0x2c4 ../transmitter_test_bsp/\libucosii_bsp.a(alt_open.o)
                0x0200f0e0                open
 .text          0x0200f2c8      0x1a8 ../transmitter_test_bsp/\libucosii_bsp.a(alt_tick.o)
                0x0200f2c8                alt_alarm_stop
                0x0200f360                alt_tick
 .text          0x0200f470       0x20 ../transmitter_test_bsp/\libucosii_bsp.a(altera_nios2_qsys_irq.o)
                0x0200f470                altera_nios2_qsys_irq_init
 .text          0x0200f490       0xd0 ../transmitter_test_bsp/\libucosii_bsp.a(os_cpu_a.o)
                0x0200f490                OSCtxSw
                0x0200f490                OSIntCtxSw
                0x0200f51c                OSStartHighRdy
                0x0200f53c                OSStartTsk
 .text          0x0200f560      0x418 ../transmitter_test_bsp/\libucosii_bsp.a(os_cpu_c.o)
                0x0200f560                OSTaskStkInit
                0x0200f870                OSTaskCreateHook
                0x0200f890                OSTaskDelHook
                0x0200f8b0                OSTaskSwHook
                0x0200f8cc                OSTaskStatHook
                0x0200f8e8                OSTimeTickHook
                0x0200f904                OSInitHookBegin
                0x0200f920                OSInitHookEnd
                0x0200f93c                OSTaskIdleHook
                0x0200f958                OSTCBInitHook
 .text          0x0200f978      0x238 ../transmitter_test_bsp/\libucosii_bsp.a(altera_avalon_spi.o)
                0x0200f978                alt_avalon_spi_command
 .text          0x0200fbb0        0x0 ../transmitter_test_bsp/\libucosii_bsp.a(alt_exception_entry.o)
 .text          0x0200fbb0       0x94 ../transmitter_test_bsp/\libucosii_bsp.a(alt_find_dev.o)
                0x0200fbb0                alt_find_dev
 .text          0x0200fc44      0x120 ../transmitter_test_bsp/\libucosii_bsp.a(alt_find_file.o)
                0x0200fc44                alt_find_file
 .text          0x0200fd64       0xf4 ../transmitter_test_bsp/\libucosii_bsp.a(alt_get_fd.o)
                0x0200fd64                alt_get_fd
 .text          0x0200fe58       0x90 ../transmitter_test_bsp/\libucosii_bsp.a(alt_icache_flush.o)
                0x0200fe58                alt_icache_flush
 .text          0x0200fee8       0x14 c:/altera/12.1sp1/nios2eds/bin/gnu/h-i686-mingw32/bin/../lib/gcc/nios2-elf/4.1.2/../../../../nios2-elf/lib\libc.a(lib_a-atexit.o)
                0x0200fee8                atexit
 .text          0x0200fefc       0x38 c:/altera/12.1sp1/nios2eds/bin/gnu/h-i686-mingw32/bin/../lib/gcc/nios2-elf/4.1.2/../../../../nios2-elf/lib\libc.a(lib_a-exit.o)
                0x0200fefc                exit
 .text          0x0200ff34       0x74 c:/altera/12.1sp1/nios2eds/bin/gnu/h-i686-mingw32/bin/../lib/gcc/nios2-elf/4.1.2/../../../../nios2-elf/lib\libc.a(lib_a-memcmp.o)
                0x0200ff34                memcmp
 .text          0x0200ffa8      0x134 c:/altera/12.1sp1/nios2eds/bin/gnu/h-i686-mingw32/bin/../lib/gcc/nios2-elf/4.1.2/../../../../nios2-elf/lib\libc.a(lib_a-__atexit.o)
                0x0200ffa8                __register_exitproc
 .text          0x020100dc      0x1b4 c:/altera/12.1sp1/nios2eds/bin/gnu/h-i686-mingw32/bin/../lib/gcc/nios2-elf/4.1.2/../../../../nios2-elf/lib\libc.a(lib_a-__call_atexit.o)
                0x020100e0                __call_exitprocs
 .text          0x02010290      0x14c c:/altera/12.1sp1/nios2eds/bin/gnu/h-i686-mingw32/bin/../lib/gcc/nios2-elf/4.1.2\libgcc.a(lib2-divmod.o)
                0x0201030c                __divsi3
                0x0201036c                __modsi3
                0x020103cc                __udivsi3
                0x020103d4                __umodsi3
 .text          0x020103dc       0x6c ../transmitter_test_bsp/\libucosii_bsp.a(alt_exit.o)
                0x0201041c                _exit
 *(.gnu.warning.*)
 *(.fini)
                0x02010448                PROVIDE (__etext, ABSOLUTE (.))
                0x02010448                PROVIDE (_etext, ABSOLUTE (.))
                0x02010448                PROVIDE (etext, ABSOLUTE (.))
 *(.eh_frame_hdr)
                0x02010448                . = ALIGN (0x4)
                0x02010448                PROVIDE (__preinit_array_start, ABSOLUTE (.))
 *(.preinit_array)
                0x02010448                PROVIDE (__preinit_array_end, ABSOLUTE (.))
                0x02010448                PROVIDE (__init_array_start, ABSOLUTE (.))
 *(.init_array)
                0x02010448                PROVIDE (__init_array_end, ABSOLUTE (.))
                0x02010448                PROVIDE (__fini_array_start, ABSOLUTE (.))
 *(.fini_array)
                0x02010448                PROVIDE (__fini_array_end, ABSOLUTE (.))
 *(.eh_frame)
 *(.gcc_except_table)
 *(.dynamic)
                0x02010448                PROVIDE (__CTOR_LIST__, ABSOLUTE (.))
 *(.ctors)
 .ctors         0x02010448        0x4 obj/default/transmitter_test.o
 *(SORT(.ctors.*))
 .ctors.65535   0x0201044c        0x4 c:/altera/12.1sp1/nios2eds/bin/gnu/h-i686-mingw32/bin/../lib/gcc/nios2-elf/4.1.2/../../../../nios2-elf/lib\libc.a(lib_a-__call_atexit.o)
                0x02010450                PROVIDE (__CTOR_END__, ABSOLUTE (.))
                0x02010450                PROVIDE (__DTOR_LIST__, ABSOLUTE (.))
 *(.dtors)
 .dtors         0x02010450        0x4 obj/default/transmitter_test.o
 *(SORT(.dtors.*))
                0x02010454                PROVIDE (__DTOR_END__, ABSOLUTE (.))
 *(.jcr)
                0x02010454                . = ALIGN (0x4)

.rodata         0x02010454      0x2ec
                0x02010454                PROVIDE (__ram_rodata_start, ABSOLUTE (.))
                0x02010454                . = ALIGN (0x4)
 *(.rodata .rodata.* .gnu.linkonce.r.*)
 .rodata._ZTV20TransmitterInterface
                0x02010454       0x10 obj/default/transmitterInterface.o
                0x02010454                vtable for TransmitterInterface
 .rodata._ZTS20TransmitterInterface
                0x02010464       0x18 obj/default/transmitterInterface.o
                0x02010464                typeinfo name for TransmitterInterface
 .rodata        0x0201047c       0x50 obj/default/transmitter_test.o
 .rodata._ZTVN10__cxxabiv117__class_type_infoE
                0x020104cc       0x2c c:/altera/12.1sp1/nios2eds/bin/gnu/h-i686-mingw32/bin/../lib/gcc/nios2-elf/4.1.2/../../../../nios2-elf/lib\libstdc++.a(class_type_info.o)
                0x020104cc                vtable for __cxxabiv1::__class_type_info
 .rodata._ZTSN10__cxxabiv117__class_type_infoE
                0x020104f8       0x24 c:/altera/12.1sp1/nios2eds/bin/gnu/h-i686-mingw32/bin/../lib/gcc/nios2-elf/4.1.2/../../../../nios2-elf/lib\libstdc++.a(class_type_info.o)
                0x020104f8                typeinfo name for __cxxabiv1::__class_type_info
 .rodata._ZTIN10__cxxabiv117__class_type_infoE
                0x0201051c        0xc c:/altera/12.1sp1/nios2eds/bin/gnu/h-i686-mingw32/bin/../lib/gcc/nios2-elf/4.1.2/../../../../nios2-elf/lib\libstdc++.a(class_type_info.o)
                0x0201051c                typeinfo for __cxxabiv1::__class_type_info
 .rodata._ZTVN10__cxxabiv120__si_class_type_infoE
                0x02010528       0x2c c:/altera/12.1sp1/nios2eds/bin/gnu/h-i686-mingw32/bin/../lib/gcc/nios2-elf/4.1.2/../../../../nios2-elf/lib\libstdc++.a(si_class_type_info.o)
                0x02010528                vtable for __cxxabiv1::__si_class_type_info
 .rodata._ZTSN10__cxxabiv120__si_class_type_infoE
                0x02010554       0x28 c:/altera/12.1sp1/nios2eds/bin/gnu/h-i686-mingw32/bin/../lib/gcc/nios2-elf/4.1.2/../../../../nios2-elf/lib\libstdc++.a(si_class_type_info.o)
                0x02010554                typeinfo name for __cxxabiv1::__si_class_type_info
 .rodata._ZTIN10__cxxabiv120__si_class_type_infoE
                0x0201057c        0xc c:/altera/12.1sp1/nios2eds/bin/gnu/h-i686-mingw32/bin/../lib/gcc/nios2-elf/4.1.2/../../../../nios2-elf/lib\libstdc++.a(si_class_type_info.o)
                0x0201057c                typeinfo for __cxxabiv1::__si_class_type_info
 .rodata._ZTVSt9type_info
                0x02010588       0x20 c:/altera/12.1sp1/nios2eds/bin/gnu/h-i686-mingw32/bin/../lib/gcc/nios2-elf/4.1.2/../../../../nios2-elf/lib\libstdc++.a(tinfo.o)
                0x02010588                vtable for std::type_info
 .rodata._ZTSSt9type_info
                0x020105a8       0x10 c:/altera/12.1sp1/nios2eds/bin/gnu/h-i686-mingw32/bin/../lib/gcc/nios2-elf/4.1.2/../../../../nios2-elf/lib\libstdc++.a(tinfo.o)
                0x020105a8                typeinfo name for std::type_info
 .rodata.str1.4
                0x020105b8        0x2 c:/altera/12.1sp1/nios2eds/bin/gnu/h-i686-mingw32/bin/../lib/gcc/nios2-elf/4.1.2/../../../../nios2-elf/lib\libc.a(lib_a-puts.o)
                                  0x4 (size before relaxing)
 *fill*         0x020105ba        0x2 00
 .rodata.str1.4
                0x020105bc        0x4 c:/altera/12.1sp1/nios2eds/bin/gnu/h-i686-mingw32/bin/../lib/gcc/nios2-elf/4.1.2/../../../../nios2-elf/lib\libc.a(lib_a-impure.o)
 .rodata        0x020105c0        0xc ../transmitter_test_bsp/\libucosii_bsp.a(alt_dev.o)
 .rodata        0x020105cc       0x10 ../transmitter_test_bsp/\libucosii_bsp.a(alt_main.o)
 .rodata        0x020105dc      0x120 ../transmitter_test_bsp/\libucosii_bsp.a(os_core.o)
                0x020105dc                OSUnMapTbl
 .rodata        0x020106fc       0x40 ../transmitter_test_bsp/\libucosii_bsp.a(alt_sys_init.o)
 .rodata        0x0201073c        0x4 ../transmitter_test_bsp/\libucosii_bsp.a(os_cpu_c.o)
 *(.rodata1)
                0x02010740                . = ALIGN (0x4)
                0x02010740                PROVIDE (__ram_rodata_end, ABSOLUTE (.))
                0x02010454                PROVIDE (__flash_rodata_start, LOADADDR (.rodata))

.rwdata         0x02010740     0x1bdc load address 0x0201231c
                0x02010740                PROVIDE (__ram_rwdata_start, ABSOLUTE (.))
                0x02010740                . = ALIGN (0x4)
 *(.got.plt)
 *(.got)
 *(.data1)
 *(.data .data.* .gnu.linkonce.d.*)
 .data          0x02010740        0x0 ../transmitter_test_bsp//obj/HAL/src/crt0.o
 .data          0x02010740        0x0 obj/default/transmitterInterface.o
 .data          0x02010740        0x0 obj/default/transmitter_test.o
 .data          0x02010740        0x0 c:/altera/12.1sp1/nios2eds/bin/gnu/h-i686-mingw32/bin/../lib/gcc/nios2-elf/4.1.2/../../../../nios2-elf/lib\libstdc++.a(class_type_info.o)
 .data          0x02010740        0x0 c:/altera/12.1sp1/nios2eds/bin/gnu/h-i686-mingw32/bin/../lib/gcc/nios2-elf/4.1.2/../../../../nios2-elf/lib\libstdc++.a(del_op.o)
 .data          0x02010740        0x0 c:/altera/12.1sp1/nios2eds/bin/gnu/h-i686-mingw32/bin/../lib/gcc/nios2-elf/4.1.2/../../../../nios2-elf/lib\libstdc++.a(si_class_type_info.o)
 .data          0x02010740        0x0 c:/altera/12.1sp1/nios2eds/bin/gnu/h-i686-mingw32/bin/../lib/gcc/nios2-elf/4.1.2/../../../../nios2-elf/lib\libstdc++.a(tinfo.o)
 .data          0x02010740        0x0 c:/altera/12.1sp1/nios2eds/bin/gnu/h-i686-mingw32/bin/../lib/gcc/nios2-elf/4.1.2/../../../../nios2-elf/lib\libc.a(lib_a-malloc.o)
 .data          0x02010740      0x408 c:/altera/12.1sp1/nios2eds/bin/gnu/h-i686-mingw32/bin/../lib/gcc/nios2-elf/4.1.2/../../../../nios2-elf/lib\libc.a(lib_a-mallocr.o)
                0x02010740                __malloc_av_
 .data          0x02010b48        0x0 c:/altera/12.1sp1/nios2eds/bin/gnu/h-i686-mingw32/bin/../lib/gcc/nios2-elf/4.1.2/../../../../nios2-elf/lib\libc.a(lib_a-puts.o)
 .data          0x02010b48        0x0 c:/altera/12.1sp1/nios2eds/bin/gnu/h-i686-mingw32/bin/../lib/gcc/nios2-elf/4.1.2/../../../../nios2-elf/lib\libc.a(lib_a-sbrkr.o)
 .data          0x02010b48        0x0 c:/altera/12.1sp1/nios2eds/bin/gnu/h-i686-mingw32/bin/../lib/gcc/nios2-elf/4.1.2/../../../../nios2-elf/lib\libc.a(lib_a-strlen.o)
 .data          0x02010b48        0x0 c:/altera/12.1sp1/nios2eds/bin/gnu/h-i686-mingw32/bin/../lib/gcc/nios2-elf/4.1.2/../../../../nios2-elf/lib\libc.a(lib_a-freer.o)
 .data          0x02010b48        0x0 c:/altera/12.1sp1/nios2eds/bin/gnu/h-i686-mingw32/bin/../lib/gcc/nios2-elf/4.1.2/../../../../nios2-elf/lib\libc.a(lib_a-fvwrite.o)
 .data          0x02010b48      0x400 c:/altera/12.1sp1/nios2eds/bin/gnu/h-i686-mingw32/bin/../lib/gcc/nios2-elf/4.1.2/../../../../nios2-elf/lib\libc.a(lib_a-impure.o)
 .data          0x02010f48        0x0 c:/altera/12.1sp1/nios2eds/bin/gnu/h-i686-mingw32/bin/../lib/gcc/nios2-elf/4.1.2/../../../../nios2-elf/lib\libc.a(lib_a-int_errno.o)
 .data          0x02010f48        0x0 c:/altera/12.1sp1/nios2eds/bin/gnu/h-i686-mingw32/bin/../lib/gcc/nios2-elf/4.1.2/../../../../nios2-elf/lib\libc.a(lib_a-memchr.o)
 .data          0x02010f48        0x0 c:/altera/12.1sp1/nios2eds/bin/gnu/h-i686-mingw32/bin/../lib/gcc/nios2-elf/4.1.2/../../../../nios2-elf/lib\libc.a(lib_a-memcpy.o)
 .data          0x02010f48        0x0 c:/altera/12.1sp1/nios2eds/bin/gnu/h-i686-mingw32/bin/../lib/gcc/nios2-elf/4.1.2/../../../../nios2-elf/lib\libc.a(lib_a-memmove.o)
 .data          0x02010f48        0x0 c:/altera/12.1sp1/nios2eds/bin/gnu/h-i686-mingw32/bin/../lib/gcc/nios2-elf/4.1.2/../../../../nios2-elf/lib\libc.a(lib_a-reallocr.o)
 .data          0x02010f48        0x0 c:/altera/12.1sp1/nios2eds/bin/gnu/h-i686-mingw32/bin/../lib/gcc/nios2-elf/4.1.2/../../../../nios2-elf/lib\libc.a(lib_a-wsetup.o)
 .data          0x02010f48        0x0 c:/altera/12.1sp1/nios2eds/bin/gnu/h-i686-mingw32/bin/../lib/gcc/nios2-elf/4.1.2/../../../../nios2-elf/lib\libc.a(lib_a-fflush.o)
 .data          0x02010f48        0x0 c:/altera/12.1sp1/nios2eds/bin/gnu/h-i686-mingw32/bin/../lib/gcc/nios2-elf/4.1.2/../../../../nios2-elf/lib\libc.a(lib_a-findfp.o)
 .data          0x02010f48        0x0 c:/altera/12.1sp1/nios2eds/bin/gnu/h-i686-mingw32/bin/../lib/gcc/nios2-elf/4.1.2/../../../../nios2-elf/lib\libc.a(lib_a-fwalk.o)
 .data          0x02010f48        0x0 c:/altera/12.1sp1/nios2eds/bin/gnu/h-i686-mingw32/bin/../lib/gcc/nios2-elf/4.1.2/../../../../nios2-elf/lib\libc.a(lib_a-makebuf.o)
 .data          0x02010f48        0x0 c:/altera/12.1sp1/nios2eds/bin/gnu/h-i686-mingw32/bin/../lib/gcc/nios2-elf/4.1.2/../../../../nios2-elf/lib\libc.a(lib_a-memset.o)
 .data          0x02010f48        0x0 c:/altera/12.1sp1/nios2eds/bin/gnu/h-i686-mingw32/bin/../lib/gcc/nios2-elf/4.1.2/../../../../nios2-elf/lib\libc.a(lib_a-stdio.o)
 .data          0x02010f48        0x0 c:/altera/12.1sp1/nios2eds/bin/gnu/h-i686-mingw32/bin/../lib/gcc/nios2-elf/4.1.2/../../../../nios2-elf/lib\libc.a(lib_a-writer.o)
 .data          0x02010f48        0x0 c:/altera/12.1sp1/nios2eds/bin/gnu/h-i686-mingw32/bin/../lib/gcc/nios2-elf/4.1.2/../../../../nios2-elf/lib\libc.a(lib_a-closer.o)
 .data          0x02010f48        0x0 c:/altera/12.1sp1/nios2eds/bin/gnu/h-i686-mingw32/bin/../lib/gcc/nios2-elf/4.1.2/../../../../nios2-elf/lib\libc.a(lib_a-fclose.o)
 .data          0x02010f48        0x0 c:/altera/12.1sp1/nios2eds/bin/gnu/h-i686-mingw32/bin/../lib/gcc/nios2-elf/4.1.2/../../../../nios2-elf/lib\libc.a(lib_a-fstatr.o)
 .data          0x02010f48        0x0 c:/altera/12.1sp1/nios2eds/bin/gnu/h-i686-mingw32/bin/../lib/gcc/nios2-elf/4.1.2/../../../../nios2-elf/lib\libc.a(lib_a-isattyr.o)
 .data          0x02010f48        0x0 c:/altera/12.1sp1/nios2eds/bin/gnu/h-i686-mingw32/bin/../lib/gcc/nios2-elf/4.1.2/../../../../nios2-elf/lib\libc.a(lib_a-lseekr.o)
 .data          0x02010f48        0x0 c:/altera/12.1sp1/nios2eds/bin/gnu/h-i686-mingw32/bin/../lib/gcc/nios2-elf/4.1.2/../../../../nios2-elf/lib\libc.a(lib_a-readr.o)
 .data          0x02010f48        0x0 ../transmitter_test_bsp/\libucosii_bsp.a(alt_close.o)
 .data          0x02010f48      0x1a8 ../transmitter_test_bsp/\libucosii_bsp.a(alt_dev.o)
                0x02010f48                alt_dev_null
                0x02010f70                alt_fd_list
 .data          0x020110f0        0x0 ../transmitter_test_bsp/\libucosii_bsp.a(alt_errno.o)
 .data          0x020110f0        0x0 ../transmitter_test_bsp/\libucosii_bsp.a(alt_fstat.o)
 .data          0x020110f0        0x0 ../transmitter_test_bsp/\libucosii_bsp.a(alt_isatty.o)
 .data          0x020110f0        0x0 ../transmitter_test_bsp/\libucosii_bsp.a(alt_load.o)
 .data          0x020110f0        0x0 ../transmitter_test_bsp/\libucosii_bsp.a(alt_lseek.o)
 .data          0x020110f0        0x0 ../transmitter_test_bsp/\libucosii_bsp.a(alt_main.o)
 .data          0x020110f0        0x0 ../transmitter_test_bsp/\libucosii_bsp.a(alt_read.o)
 .data          0x020110f0        0x0 ../transmitter_test_bsp/\libucosii_bsp.a(alt_release_fd.o)
 .data          0x020110f0        0x0 ../transmitter_test_bsp/\libucosii_bsp.a(alt_sbrk.o)
 .data          0x020110f0        0x0 ../transmitter_test_bsp/\libucosii_bsp.a(alt_write.o)
 .data          0x020110f0        0x0 ../transmitter_test_bsp/\libucosii_bsp.a(alt_env_lock.o)
 .data          0x020110f0        0x0 ../transmitter_test_bsp/\libucosii_bsp.a(alt_malloc_lock.o)
 .data          0x020110f0        0x0 ../transmitter_test_bsp/\libucosii_bsp.a(os_core.o)
 .data          0x020110f0        0x0 ../transmitter_test_bsp/\libucosii_bsp.a(os_dbg.o)
 .data          0x020110f0        0x0 ../transmitter_test_bsp/\libucosii_bsp.a(os_flag.o)
 .data          0x020110f0        0x0 ../transmitter_test_bsp/\libucosii_bsp.a(os_mem.o)
 .data          0x020110f0        0x0 ../transmitter_test_bsp/\libucosii_bsp.a(os_q.o)
 .data          0x020110f0        0x0 ../transmitter_test_bsp/\libucosii_bsp.a(os_sem.o)
 .data          0x020110f0        0x0 ../transmitter_test_bsp/\libucosii_bsp.a(os_task.o)
 .data          0x020110f0        0x0 ../transmitter_test_bsp/\libucosii_bsp.a(os_time.o)
 .data          0x020110f0     0x1160 ../transmitter_test_bsp/\libucosii_bsp.a(alt_sys_init.o)
 .data          0x02012250        0x0 ../transmitter_test_bsp/\libucosii_bsp.a(altera_avalon_epcs_flash_controller.o)
 .data          0x02012250        0x0 ../transmitter_test_bsp/\libucosii_bsp.a(altera_avalon_jtag_uart_fd.o)
 .data          0x02012250        0x0 ../transmitter_test_bsp/\libucosii_bsp.a(altera_avalon_jtag_uart_init.o)
 .data          0x02012250        0x0 ../transmitter_test_bsp/\libucosii_bsp.a(altera_avalon_jtag_uart_ioctl.o)
 .data          0x02012250        0x0 ../transmitter_test_bsp/\libucosii_bsp.a(altera_avalon_jtag_uart_read.o)
 .data          0x02012250        0x0 ../transmitter_test_bsp/\libucosii_bsp.a(altera_avalon_jtag_uart_write.o)
 .data          0x02012250        0x0 ../transmitter_test_bsp/\libucosii_bsp.a(altera_avalon_timer_sc.o)
 .data          0x02012250        0x0 ../transmitter_test_bsp/\libucosii_bsp.a(epcs_commands.o)
 .data          0x02012250        0x0 ../transmitter_test_bsp/\libucosii_bsp.a(alt_alarm_start.o)
 .data          0x02012250        0x0 ../transmitter_test_bsp/\libucosii_bsp.a(alt_dcache_flush_all.o)
 .data          0x02012250        0x0 ../transmitter_test_bsp/\libucosii_bsp.a(alt_dev_llist_insert.o)
 .data          0x02012250        0x0 ../transmitter_test_bsp/\libucosii_bsp.a(alt_do_ctors.o)
 .data          0x02012250        0x0 ../transmitter_test_bsp/\libucosii_bsp.a(alt_do_dtors.o)
 .data          0x02012250        0x0 ../transmitter_test_bsp/\libucosii_bsp.a(alt_flash_dev.o)
 .data          0x02012250        0x0 ../transmitter_test_bsp/\libucosii_bsp.a(alt_icache_flush_all.o)
 .data          0x02012250        0x0 ../transmitter_test_bsp/\libucosii_bsp.a(alt_iic.o)
 .data          0x02012250        0x0 ../transmitter_test_bsp/\libucosii_bsp.a(alt_iic_isr_register.o)
 .data          0x02012250        0x0 ../transmitter_test_bsp/\libucosii_bsp.a(alt_io_redirect.o)
 .data          0x02012250        0x0 ../transmitter_test_bsp/\libucosii_bsp.a(alt_irq_entry.o)
 .data          0x02012250        0x0 ../transmitter_test_bsp/\libucosii_bsp.a(alt_irq_handler.o)
 .data          0x02012250        0x0 ../transmitter_test_bsp/\libucosii_bsp.a(alt_irq_vars.o)
 .data          0x02012250        0x0 ../transmitter_test_bsp/\libucosii_bsp.a(alt_open.o)
 .data          0x02012250        0x0 ../transmitter_test_bsp/\libucosii_bsp.a(alt_tick.o)
 .data          0x02012250        0x0 ../transmitter_test_bsp/\libucosii_bsp.a(altera_nios2_qsys_irq.o)
 .data          0x02012250        0x0 ../transmitter_test_bsp/\libucosii_bsp.a(os_cpu_a.o)
 .data          0x02012250        0x0 ../transmitter_test_bsp/\libucosii_bsp.a(os_cpu_c.o)
 .data          0x02012250        0x0 ../transmitter_test_bsp/\libucosii_bsp.a(altera_avalon_spi.o)
 .data          0x02012250        0x0 ../transmitter_test_bsp/\libucosii_bsp.a(alt_exception_entry.o)
 .data          0x02012250        0x0 ../transmitter_test_bsp/\libucosii_bsp.a(alt_find_dev.o)
 .data          0x02012250        0x0 ../transmitter_test_bsp/\libucosii_bsp.a(alt_find_file.o)
 .data          0x02012250        0x0 ../transmitter_test_bsp/\libucosii_bsp.a(alt_get_fd.o)
 .data          0x02012250        0x0 ../transmitter_test_bsp/\libucosii_bsp.a(alt_icache_flush.o)
 .data          0x02012250        0x0 c:/altera/12.1sp1/nios2eds/bin/gnu/h-i686-mingw32/bin/../lib/gcc/nios2-elf/4.1.2/../../../../nios2-elf/lib\libc.a(lib_a-atexit.o)
 .data          0x02012250        0x0 c:/altera/12.1sp1/nios2eds/bin/gnu/h-i686-mingw32/bin/../lib/gcc/nios2-elf/4.1.2/../../../../nios2-elf/lib\libc.a(lib_a-exit.o)
 .data          0x02012250        0x0 c:/altera/12.1sp1/nios2eds/bin/gnu/h-i686-mingw32/bin/../lib/gcc/nios2-elf/4.1.2/../../../../nios2-elf/lib\libc.a(lib_a-memcmp.o)
 .data          0x02012250        0x0 c:/altera/12.1sp1/nios2eds/bin/gnu/h-i686-mingw32/bin/../lib/gcc/nios2-elf/4.1.2/../../../../nios2-elf/lib\libc.a(lib_a-__atexit.o)
 .data          0x02012250        0x0 c:/altera/12.1sp1/nios2eds/bin/gnu/h-i686-mingw32/bin/../lib/gcc/nios2-elf/4.1.2/../../../../nios2-elf/lib\libc.a(lib_a-__call_atexit.o)
 .data          0x02012250        0x0 c:/altera/12.1sp1/nios2eds/bin/gnu/h-i686-mingw32/bin/../lib/gcc/nios2-elf/4.1.2\libgcc.a(lib2-divmod.o)
 .data          0x02012250        0x0 ../transmitter_test_bsp/\libucosii_bsp.a(alt_exit.o)
                0x0201a250                _gp = ABSOLUTE ((. + 0x8000))
                0x0201a250                PROVIDE (gp, _gp)
 *(.rwdata .rwdata.*)
 *(.sdata .sdata.* .gnu.linkonce.s.*)
 .sdata._ZTI20TransmitterInterface
                0x02012250        0x8 obj/default/transmitterInterface.o
                0x02012250                typeinfo for TransmitterInterface
 .sdata._ZTISt9type_info
                0x02012258        0x8 c:/altera/12.1sp1/nios2eds/bin/gnu/h-i686-mingw32/bin/../lib/gcc/nios2-elf/4.1.2/../../../../nios2-elf/lib\libstdc++.a(tinfo.o)
                0x02012258                typeinfo for std::type_info
 .sdata         0x02012260        0x8 c:/altera/12.1sp1/nios2eds/bin/gnu/h-i686-mingw32/bin/../lib/gcc/nios2-elf/4.1.2/../../../../nios2-elf/lib\libc.a(lib_a-mallocr.o)
                0x02012260                __malloc_trim_threshold
                0x02012264                __malloc_sbrk_base
 .sdata         0x02012268        0x8 c:/altera/12.1sp1/nios2eds/bin/gnu/h-i686-mingw32/bin/../lib/gcc/nios2-elf/4.1.2/../../../../nios2-elf/lib\libc.a(lib_a-impure.o)
                0x02012268                _impure_ptr
                0x0201226c                _global_impure_ptr
 .sdata         0x02012270       0x14 ../transmitter_test_bsp/\libucosii_bsp.a(alt_dev.o)
                0x02012270                alt_fs_list
                0x02012278                alt_dev_list
                0x02012280                alt_max_fd
 .sdata         0x02012284        0x4 ../transmitter_test_bsp/\libucosii_bsp.a(alt_errno.o)
                0x02012284                alt_errno
 .sdata         0x02012288        0x4 ../transmitter_test_bsp/\libucosii_bsp.a(alt_sbrk.o)
 .sdata         0x0201228c        0x4 ../transmitter_test_bsp/\libucosii_bsp.a(alt_env_lock.o)
 .sdata         0x02012290        0x4 ../transmitter_test_bsp/\libucosii_bsp.a(alt_malloc_lock.o)
 .sdata         0x02012294       0x74 ../transmitter_test_bsp/\libucosii_bsp.a(os_dbg.o)
                0x02012294                OSDebugEn
                0x02012298                OSEndiannessTest
                0x0201229c                OSEventEn
                0x0201229e                OSEventMax
                0x020122a0                OSEventNameSize
                0x020122a2                OSEventSize
                0x020122a4                OSEventTblSize
                0x020122a6                OSEventMultiEn
                0x020122a8                OSFlagEn
                0x020122aa                OSFlagGrpSize
                0x020122ac                OSFlagNodeSize
                0x020122ae                OSFlagWidth
                0x020122b0                OSFlagMax
                0x020122b2                OSFlagNameSize
                0x020122b4                OSLowestPrio
                0x020122b6                OSMboxEn
                0x020122b8                OSMemEn
                0x020122ba                OSMemMax
                0x020122bc                OSMemNameSize
                0x020122be                OSMemSize
                0x020122c0                OSMemTblSize
                0x020122c2                OSMutexEn
                0x020122c4                OSPtrSize
                0x020122c6                OSQEn
                0x020122c8                OSQMax
                0x020122ca                OSQSize
                0x020122cc                OSRdyTblSize
                0x020122ce                OSSemEn
                0x020122d0                OSStkWidth
                0x020122d2                OSTaskCreateEn
                0x020122d4                OSTaskCreateExtEn
                0x020122d6                OSTaskDelEn
                0x020122d8                OSTaskIdleStkSize
                0x020122da                OSTaskProfileEn
                0x020122dc                OSTaskMax
                0x020122de                OSTaskNameSize
                0x020122e0                OSTaskStatEn
                0x020122e2                OSTaskStatStkSize
                0x020122e4                OSTaskStatStkChkEn
                0x020122e6                OSTaskSwHookEn
                0x020122e8                OSTCBPrioTblMax
                0x020122ea                OSTCBSize
                0x020122ec                OSTicksPerSec
                0x020122ee                OSTimeTickHookEn
                0x020122f0                OSVersionNbr
                0x020122f2                OSTmrEn
                0x020122f4                OSTmrCfgMax
                0x020122f6                OSTmrCfgNameSize
                0x020122f8                OSTmrCfgWheelSize
                0x020122fa                OSTmrCfgTicksPerSec
                0x020122fc                OSTmrSize
                0x020122fe                OSTmrTblSize
                0x02012300                OSTmrWheelSize
                0x02012302                OSTmrWheelTblSize
                0x02012304                OSDataSize
 .sdata         0x02012308        0x8 ../transmitter_test_bsp/\libucosii_bsp.a(alt_flash_dev.o)
                0x02012308                alt_flash_dev_list
 .sdata         0x02012310        0x4 ../transmitter_test_bsp/\libucosii_bsp.a(alt_irq_vars.o)
                0x02012310                alt_priority_mask
 .sdata         0x02012314        0x8 ../transmitter_test_bsp/\libucosii_bsp.a(alt_tick.o)
                0x02012314                alt_alarm_list
 *(.sdata2 .sdata2.* .gnu.linkonce.s2.*)
                0x0201231c                . = ALIGN (0x4)
                0x0201231c                _edata = ABSOLUTE (.)
                0x0201231c                PROVIDE (edata, ABSOLUTE (.))
                0x0201231c                PROVIDE (__ram_rwdata_end, ABSOLUTE (.))
                0x0201231c                PROVIDE (__flash_rwdata_start, LOADADDR (.rwdata))

.bss            0x02013ef8     0x5578
                0x02013ef8                __bss_start = ABSOLUTE (.)
                0x02013ef8                PROVIDE (__sbss_start, ABSOLUTE (.))
                0x02013ef8                PROVIDE (___sbss_start, ABSOLUTE (.))
 *(.dynsbss)
 *(.sbss .sbss.* .gnu.linkonce.sb.*)
 .sbss          0x02013ef8        0xc c:/altera/12.1sp1/nios2eds/bin/gnu/h-i686-mingw32/bin/../lib/gcc/nios2-elf/4.1.2/../../../../nios2-elf/lib\libc.a(lib_a-mallocr.o)
                0x02013ef8                __malloc_top_pad
                0x02013efc                __malloc_max_sbrked_mem
                0x02013f00                __malloc_max_total_mem
 .sbss          0x02013f04        0x4 c:/altera/12.1sp1/nios2eds/bin/gnu/h-i686-mingw32/bin/../lib/gcc/nios2-elf/4.1.2/../../../../nios2-elf/lib\libc.a(lib_a-int_errno.o)
                0x02013f04                errno
 .sbss          0x02013f08        0x4 ../transmitter_test_bsp/\libucosii_bsp.a(alt_dev.o)
                0x02013f08                alt_fd_list_lock
 .sbss          0x02013f0c        0xc ../transmitter_test_bsp/\libucosii_bsp.a(alt_main.o)
                0x02013f0c                alt_argc
                0x02013f10                alt_argv
                0x02013f14                alt_envp
 .sbss          0x02013f18        0x8 ../transmitter_test_bsp/\libucosii_bsp.a(alt_env_lock.o)
                0x02013f1c                alt_envsem
 .sbss          0x02013f20        0x8 ../transmitter_test_bsp/\libucosii_bsp.a(alt_malloc_lock.o)
                0x02013f24                alt_heapsem
 .sbss          0x02013f28       0x50 ../transmitter_test_bsp/\libucosii_bsp.a(os_core.o)
                0x02013f28                OSLockNesting
                0x02013f29                OSRunning
                0x02013f2c                OSIdleCtr
                0x02013f30                OSPrioHighRdy
                0x02013f31                OSPrioCur
                0x02013f34                OSTCBList
                0x02013f38                OSTickStepState
                0x02013f3c                OSCtxSwCtr
                0x02013f40                OSIdleCtrMax
                0x02013f44                OSTCBFreeList
                0x02013f48                OSCPUUsage
                0x02013f49                OSTaskCtr
                0x02013f4c                OSMemFreeList
                0x02013f50                OSTCBHighRdy
                0x02013f54                OSQFreeList
                0x02013f58                OSRdyGrp
                0x02013f59                OSRdyTbl
                0x02013f5c                OSEventFreeList
                0x02013f60                OSIntNesting
                0x02013f64                OSTCBCur
                0x02013f68                OSTime
                0x02013f6c                OSFlagFreeList
                0x02013f70                OSStatRdy
                0x02013f74                OSIdleCtrRun
 .sbss          0x02013f78        0x4 ../transmitter_test_bsp/\libucosii_bsp.a(alt_irq_vars.o)
                0x02013f78                alt_irq_active
 .sbss          0x02013f7c        0x8 ../transmitter_test_bsp/\libucosii_bsp.a(alt_tick.o)
                0x02013f7c                _alt_tick_rate
                0x02013f80                _alt_nticks
 *(.sbss2 .sbss2.* .gnu.linkonce.sb2.*)
 *(.scommon)
                0x02013f84                PROVIDE (__sbss_end, ABSOLUTE (.))
                0x02013f84                PROVIDE (___sbss_end, ABSOLUTE (.))
 *(.dynbss)
 *(.bss .bss.* .gnu.linkonce.b.*)
 .bss           0x02013f84        0x0 ../transmitter_test_bsp//obj/HAL/src/crt0.o
 .bss           0x02013f84        0x0 obj/default/transmitterInterface.o
 .bss           0x02013f84     0x2010 obj/default/transmitter_test.o
                0x02013f84                task1_stk
                0x02015f84                transmit
 .bss           0x02015f94        0x0 c:/altera/12.1sp1/nios2eds/bin/gnu/h-i686-mingw32/bin/../lib/gcc/nios2-elf/4.1.2/../../../../nios2-elf/lib\libstdc++.a(class_type_info.o)
 .bss           0x02015f94        0x0 c:/altera/12.1sp1/nios2eds/bin/gnu/h-i686-mingw32/bin/../lib/gcc/nios2-elf/4.1.2/../../../../nios2-elf/lib\libstdc++.a(del_op.o)
 .bss           0x02015f94        0x0 c:/altera/12.1sp1/nios2eds/bin/gnu/h-i686-mingw32/bin/../lib/gcc/nios2-elf/4.1.2/../../../../nios2-elf/lib\libstdc++.a(si_class_type_info.o)
 .bss           0x02015f94        0x0 c:/altera/12.1sp1/nios2eds/bin/gnu/h-i686-mingw32/bin/../lib/gcc/nios2-elf/4.1.2/../../../../nios2-elf/lib\libstdc++.a(tinfo.o)
 .bss           0x02015f94        0x0 c:/altera/12.1sp1/nios2eds/bin/gnu/h-i686-mingw32/bin/../lib/gcc/nios2-elf/4.1.2/../../../../nios2-elf/lib\libc.a(lib_a-malloc.o)
 .bss           0x02015f94       0x28 c:/altera/12.1sp1/nios2eds/bin/gnu/h-i686-mingw32/bin/../lib/gcc/nios2-elf/4.1.2/../../../../nios2-elf/lib\libc.a(lib_a-mallocr.o)
                0x02015f94                __malloc_current_mallinfo
 .bss           0x02015fbc        0x0 c:/altera/12.1sp1/nios2eds/bin/gnu/h-i686-mingw32/bin/../lib/gcc/nios2-elf/4.1.2/../../../../nios2-elf/lib\libc.a(lib_a-puts.o)
 .bss           0x02015fbc        0x0 c:/altera/12.1sp1/nios2eds/bin/gnu/h-i686-mingw32/bin/../lib/gcc/nios2-elf/4.1.2/../../../../nios2-elf/lib\libc.a(lib_a-sbrkr.o)
 .bss           0x02015fbc        0x0 c:/altera/12.1sp1/nios2eds/bin/gnu/h-i686-mingw32/bin/../lib/gcc/nios2-elf/4.1.2/../../../../nios2-elf/lib\libc.a(lib_a-strlen.o)
 .bss           0x02015fbc        0x0 c:/altera/12.1sp1/nios2eds/bin/gnu/h-i686-mingw32/bin/../lib/gcc/nios2-elf/4.1.2/../../../../nios2-elf/lib\libc.a(lib_a-freer.o)
 .bss           0x02015fbc        0x0 c:/altera/12.1sp1/nios2eds/bin/gnu/h-i686-mingw32/bin/../lib/gcc/nios2-elf/4.1.2/../../../../nios2-elf/lib\libc.a(lib_a-fvwrite.o)
 .bss           0x02015fbc        0x0 c:/altera/12.1sp1/nios2eds/bin/gnu/h-i686-mingw32/bin/../lib/gcc/nios2-elf/4.1.2/../../../../nios2-elf/lib\libc.a(lib_a-impure.o)
 .bss           0x02015fbc        0x0 c:/altera/12.1sp1/nios2eds/bin/gnu/h-i686-mingw32/bin/../lib/gcc/nios2-elf/4.1.2/../../../../nios2-elf/lib\libc.a(lib_a-int_errno.o)
 .bss           0x02015fbc        0x0 c:/altera/12.1sp1/nios2eds/bin/gnu/h-i686-mingw32/bin/../lib/gcc/nios2-elf/4.1.2/../../../../nios2-elf/lib\libc.a(lib_a-memchr.o)
 .bss           0x02015fbc        0x0 c:/altera/12.1sp1/nios2eds/bin/gnu/h-i686-mingw32/bin/../lib/gcc/nios2-elf/4.1.2/../../../../nios2-elf/lib\libc.a(lib_a-memcpy.o)
 .bss           0x02015fbc        0x0 c:/altera/12.1sp1/nios2eds/bin/gnu/h-i686-mingw32/bin/../lib/gcc/nios2-elf/4.1.2/../../../../nios2-elf/lib\libc.a(lib_a-memmove.o)
 .bss           0x02015fbc        0x0 c:/altera/12.1sp1/nios2eds/bin/gnu/h-i686-mingw32/bin/../lib/gcc/nios2-elf/4.1.2/../../../../nios2-elf/lib\libc.a(lib_a-reallocr.o)
 .bss           0x02015fbc        0x0 c:/altera/12.1sp1/nios2eds/bin/gnu/h-i686-mingw32/bin/../lib/gcc/nios2-elf/4.1.2/../../../../nios2-elf/lib\libc.a(lib_a-wsetup.o)
 .bss           0x02015fbc        0x0 c:/altera/12.1sp1/nios2eds/bin/gnu/h-i686-mingw32/bin/../lib/gcc/nios2-elf/4.1.2/../../../../nios2-elf/lib\libc.a(lib_a-fflush.o)
 .bss           0x02015fbc        0x0 c:/altera/12.1sp1/nios2eds/bin/gnu/h-i686-mingw32/bin/../lib/gcc/nios2-elf/4.1.2/../../../../nios2-elf/lib\libc.a(lib_a-findfp.o)
 .bss           0x02015fbc        0x0 c:/altera/12.1sp1/nios2eds/bin/gnu/h-i686-mingw32/bin/../lib/gcc/nios2-elf/4.1.2/../../../../nios2-elf/lib\libc.a(lib_a-fwalk.o)
 .bss           0x02015fbc        0x0 c:/altera/12.1sp1/nios2eds/bin/gnu/h-i686-mingw32/bin/../lib/gcc/nios2-elf/4.1.2/../../../../nios2-elf/lib\libc.a(lib_a-makebuf.o)
 .bss           0x02015fbc        0x0 c:/altera/12.1sp1/nios2eds/bin/gnu/h-i686-mingw32/bin/../lib/gcc/nios2-elf/4.1.2/../../../../nios2-elf/lib\libc.a(lib_a-memset.o)
 .bss           0x02015fbc        0x0 c:/altera/12.1sp1/nios2eds/bin/gnu/h-i686-mingw32/bin/../lib/gcc/nios2-elf/4.1.2/../../../../nios2-elf/lib\libc.a(lib_a-stdio.o)
 .bss           0x02015fbc        0x0 c:/altera/12.1sp1/nios2eds/bin/gnu/h-i686-mingw32/bin/../lib/gcc/nios2-elf/4.1.2/../../../../nios2-elf/lib\libc.a(lib_a-writer.o)
 .bss           0x02015fbc        0x0 c:/altera/12.1sp1/nios2eds/bin/gnu/h-i686-mingw32/bin/../lib/gcc/nios2-elf/4.1.2/../../../../nios2-elf/lib\libc.a(lib_a-closer.o)
 .bss           0x02015fbc        0x0 c:/altera/12.1sp1/nios2eds/bin/gnu/h-i686-mingw32/bin/../lib/gcc/nios2-elf/4.1.2/../../../../nios2-elf/lib\libc.a(lib_a-fclose.o)
 .bss           0x02015fbc        0x0 c:/altera/12.1sp1/nios2eds/bin/gnu/h-i686-mingw32/bin/../lib/gcc/nios2-elf/4.1.2/../../../../nios2-elf/lib\libc.a(lib_a-fstatr.o)
 .bss           0x02015fbc        0x0 c:/altera/12.1sp1/nios2eds/bin/gnu/h-i686-mingw32/bin/../lib/gcc/nios2-elf/4.1.2/../../../../nios2-elf/lib\libc.a(lib_a-isattyr.o)
 .bss           0x02015fbc        0x0 c:/altera/12.1sp1/nios2eds/bin/gnu/h-i686-mingw32/bin/../lib/gcc/nios2-elf/4.1.2/../../../../nios2-elf/lib\libc.a(lib_a-lseekr.o)
 .bss           0x02015fbc        0x0 c:/altera/12.1sp1/nios2eds/bin/gnu/h-i686-mingw32/bin/../lib/gcc/nios2-elf/4.1.2/../../../../nios2-elf/lib\libc.a(lib_a-readr.o)
 .bss           0x02015fbc        0x0 ../transmitter_test_bsp/\libucosii_bsp.a(alt_close.o)
 .bss           0x02015fbc        0x0 ../transmitter_test_bsp/\libucosii_bsp.a(alt_dev.o)
 .bss           0x02015fbc        0x0 ../transmitter_test_bsp/\libucosii_bsp.a(alt_errno.o)
 .bss           0x02015fbc        0x0 ../transmitter_test_bsp/\libucosii_bsp.a(alt_fstat.o)
 .bss           0x02015fbc        0x0 ../transmitter_test_bsp/\libucosii_bsp.a(alt_isatty.o)
 .bss           0x02015fbc        0x0 ../transmitter_test_bsp/\libucosii_bsp.a(alt_load.o)
 .bss           0x02015fbc        0x0 ../transmitter_test_bsp/\libucosii_bsp.a(alt_lseek.o)
 .bss           0x02015fbc        0x0 ../transmitter_test_bsp/\libucosii_bsp.a(alt_main.o)
 .bss           0x02015fbc        0x0 ../transmitter_test_bsp/\libucosii_bsp.a(alt_read.o)
 .bss           0x02015fbc        0x0 ../transmitter_test_bsp/\libucosii_bsp.a(alt_release_fd.o)
 .bss           0x02015fbc        0x0 ../transmitter_test_bsp/\libucosii_bsp.a(alt_sbrk.o)
 .bss           0x02015fbc        0x0 ../transmitter_test_bsp/\libucosii_bsp.a(alt_write.o)
 .bss           0x02015fbc        0x0 ../transmitter_test_bsp/\libucosii_bsp.a(alt_env_lock.o)
 .bss           0x02015fbc        0x0 ../transmitter_test_bsp/\libucosii_bsp.a(alt_malloc_lock.o)
 .bss           0x02015fbc        0x0 ../transmitter_test_bsp/\libucosii_bsp.a(os_core.o)
 .bss           0x02015fbc        0x0 ../transmitter_test_bsp/\libucosii_bsp.a(os_dbg.o)
 .bss           0x02015fbc        0x0 ../transmitter_test_bsp/\libucosii_bsp.a(os_flag.o)
 .bss           0x02015fbc        0x0 ../transmitter_test_bsp/\libucosii_bsp.a(os_mem.o)
 .bss           0x02015fbc        0x0 ../transmitter_test_bsp/\libucosii_bsp.a(os_q.o)
 .bss           0x02015fbc        0x0 ../transmitter_test_bsp/\libucosii_bsp.a(os_sem.o)
 .bss           0x02015fbc        0x0 ../transmitter_test_bsp/\libucosii_bsp.a(os_task.o)
 .bss           0x02015fbc        0x0 ../transmitter_test_bsp/\libucosii_bsp.a(os_time.o)
 .bss           0x02015fbc        0x0 ../transmitter_test_bsp/\libucosii_bsp.a(alt_sys_init.o)
 .bss           0x02015fbc        0x0 ../transmitter_test_bsp/\libucosii_bsp.a(altera_avalon_epcs_flash_controller.o)
 .bss           0x02015fbc        0x0 ../transmitter_test_bsp/\libucosii_bsp.a(altera_avalon_jtag_uart_fd.o)
 .bss           0x02015fbc        0x0 ../transmitter_test_bsp/\libucosii_bsp.a(altera_avalon_jtag_uart_init.o)
 .bss           0x02015fbc        0x0 ../transmitter_test_bsp/\libucosii_bsp.a(altera_avalon_jtag_uart_ioctl.o)
 .bss           0x02015fbc        0x0 ../transmitter_test_bsp/\libucosii_bsp.a(altera_avalon_jtag_uart_read.o)
 .bss           0x02015fbc        0x0 ../transmitter_test_bsp/\libucosii_bsp.a(altera_avalon_jtag_uart_write.o)
 .bss           0x02015fbc        0x0 ../transmitter_test_bsp/\libucosii_bsp.a(altera_avalon_timer_sc.o)
 .bss           0x02015fbc        0x0 ../transmitter_test_bsp/\libucosii_bsp.a(epcs_commands.o)
 .bss           0x02015fbc        0x0 ../transmitter_test_bsp/\libucosii_bsp.a(alt_alarm_start.o)
 .bss           0x02015fbc        0x0 ../transmitter_test_bsp/\libucosii_bsp.a(alt_dcache_flush_all.o)
 .bss           0x02015fbc        0x0 ../transmitter_test_bsp/\libucosii_bsp.a(alt_dev_llist_insert.o)
 .bss           0x02015fbc        0x0 ../transmitter_test_bsp/\libucosii_bsp.a(alt_do_ctors.o)
 .bss           0x02015fbc        0x0 ../transmitter_test_bsp/\libucosii_bsp.a(alt_do_dtors.o)
 .bss           0x02015fbc        0x0 ../transmitter_test_bsp/\libucosii_bsp.a(alt_flash_dev.o)
 .bss           0x02015fbc        0x0 ../transmitter_test_bsp/\libucosii_bsp.a(alt_icache_flush_all.o)
 .bss           0x02015fbc        0x0 ../transmitter_test_bsp/\libucosii_bsp.a(alt_iic.o)
 .bss           0x02015fbc        0x0 ../transmitter_test_bsp/\libucosii_bsp.a(alt_iic_isr_register.o)
 .bss           0x02015fbc        0x0 ../transmitter_test_bsp/\libucosii_bsp.a(alt_io_redirect.o)
 .bss           0x02015fbc        0x0 ../transmitter_test_bsp/\libucosii_bsp.a(alt_irq_entry.o)
 .bss           0x02015fbc        0x0 ../transmitter_test_bsp/\libucosii_bsp.a(alt_irq_handler.o)
 .bss           0x02015fbc        0x0 ../transmitter_test_bsp/\libucosii_bsp.a(alt_irq_vars.o)
 .bss           0x02015fbc        0x0 ../transmitter_test_bsp/\libucosii_bsp.a(alt_open.o)
 .bss           0x02015fbc        0x0 ../transmitter_test_bsp/\libucosii_bsp.a(alt_tick.o)
 .bss           0x02015fbc        0x0 ../transmitter_test_bsp/\libucosii_bsp.a(altera_nios2_qsys_irq.o)
 .bss           0x02015fbc        0x0 ../transmitter_test_bsp/\libucosii_bsp.a(os_cpu_a.o)
 .bss           0x02015fbc        0x0 ../transmitter_test_bsp/\libucosii_bsp.a(os_cpu_c.o)
 .bss           0x02015fbc        0x0 ../transmitter_test_bsp/\libucosii_bsp.a(altera_avalon_spi.o)
 .bss           0x02015fbc        0x0 ../transmitter_test_bsp/\libucosii_bsp.a(alt_exception_entry.o)
 .bss           0x02015fbc        0x0 ../transmitter_test_bsp/\libucosii_bsp.a(alt_find_dev.o)
 .bss           0x02015fbc        0x0 ../transmitter_test_bsp/\libucosii_bsp.a(alt_find_file.o)
 .bss           0x02015fbc        0x0 ../transmitter_test_bsp/\libucosii_bsp.a(alt_get_fd.o)
 .bss           0x02015fbc        0x0 ../transmitter_test_bsp/\libucosii_bsp.a(alt_icache_flush.o)
 .bss           0x02015fbc        0x0 c:/altera/12.1sp1/nios2eds/bin/gnu/h-i686-mingw32/bin/../lib/gcc/nios2-elf/4.1.2/../../../../nios2-elf/lib\libc.a(lib_a-atexit.o)
 .bss           0x02015fbc        0x0 c:/altera/12.1sp1/nios2eds/bin/gnu/h-i686-mingw32/bin/../lib/gcc/nios2-elf/4.1.2/../../../../nios2-elf/lib\libc.a(lib_a-exit.o)
 .bss           0x02015fbc        0x0 c:/altera/12.1sp1/nios2eds/bin/gnu/h-i686-mingw32/bin/../lib/gcc/nios2-elf/4.1.2/../../../../nios2-elf/lib\libc.a(lib_a-memcmp.o)
 .bss           0x02015fbc        0x0 c:/altera/12.1sp1/nios2eds/bin/gnu/h-i686-mingw32/bin/../lib/gcc/nios2-elf/4.1.2/../../../../nios2-elf/lib\libc.a(lib_a-__atexit.o)
 .bss           0x02015fbc        0x0 c:/altera/12.1sp1/nios2eds/bin/gnu/h-i686-mingw32/bin/../lib/gcc/nios2-elf/4.1.2/../../../../nios2-elf/lib\libc.a(lib_a-__call_atexit.o)
 .bss           0x02015fbc        0x0 c:/altera/12.1sp1/nios2eds/bin/gnu/h-i686-mingw32/bin/../lib/gcc/nios2-elf/4.1.2\libgcc.a(lib2-divmod.o)
 .bss           0x02015fbc        0x0 ../transmitter_test_bsp/\libucosii_bsp.a(alt_exit.o)
 *(COMMON)
 COMMON         0x02015fbc     0x3224 ../transmitter_test_bsp/\libucosii_bsp.a(os_core.o)
                0x02015fbc                OSFlagTbl
                0x0201632c                OSMemTbl
                0x02016f5c                OSTaskStatStk
                0x0201775c                OSQTbl
                0x0201793c                OSTaskIdleStk
                0x0201813c                OSEventTbl
                0x02018c7c                OSTCBTbl
                0x0201918c                OSTCBPrioTbl
 COMMON         0x020191e0      0x100 ../transmitter_test_bsp/\libucosii_bsp.a(alt_irq_handler.o)
                0x020191e0                alt_irq
 COMMON         0x020192e0      0x190 c:/altera/12.1sp1/nios2eds/bin/gnu/h-i686-mingw32/bin/../lib/gcc/nios2-elf/4.1.2/../../../../nios2-elf/lib\libc.a(lib_a-atexit.o)
                0x020192e0                _atexit0
                0x02019470                . = ALIGN (0x4)
                0x02019470                __bss_end = ABSOLUTE (.)

.sdram          0x02019470        0x0
                0x02019470                PROVIDE (_alt_partition_sdram_start, ABSOLUTE (.))
 *(.sdram. sdram.*)
                0x02019470                . = ALIGN (0x4)
                0x02019470                PROVIDE (_alt_partition_sdram_end, ABSOLUTE (.))
                0x02019470                _end = ABSOLUTE (.)
                0x02019470                end = ABSOLUTE (.)
                0x02019470                __alt_stack_base = ABSOLUTE (.)
                0x02019470                PROVIDE (_alt_partition_sdram_load_addr, LOADADDR (.sdram))

.epcs_flash_controller
                0x04000800        0x0 load address 0x02019470
                0x04000800                PROVIDE (_alt_partition_epcs_flash_controller_start, ABSOLUTE (.))
 *(.epcs_flash_controller. epcs_flash_controller.*)
                0x04000800                . = ALIGN (0x4)
                0x04000800                PROVIDE (_alt_partition_epcs_flash_controller_end, ABSOLUTE (.))
                0x02019470                PROVIDE (_alt_partition_epcs_flash_controller_load_addr, LOADADDR (.epcs_flash_controller))

.stab
 *(.stab)

.stabstr
 *(.stabstr)

.stab.excl
 *(.stab.excl)

.stab.exclstr
 *(.stab.exclstr)

.stab.index
 *(.stab.index)

.stab.indexstr
 *(.stab.indexstr)

.comment        0x00000000       0x26
 *(.comment)
 .comment       0x00000000       0x26 obj/default/transmitterInterface.o
                                 0x27 (size before relaxing)
 .comment       0x00000000       0x27 obj/default/transmitter_test.o
 .comment       0x00000000       0x27 c:/altera/12.1sp1/nios2eds/bin/gnu/h-i686-mingw32/bin/../lib/gcc/nios2-elf/4.1.2/../../../../nios2-elf/lib\libstdc++.a(class_type_info.o)
 .comment       0x00000000       0x27 c:/altera/12.1sp1/nios2eds/bin/gnu/h-i686-mingw32/bin/../lib/gcc/nios2-elf/4.1.2/../../../../nios2-elf/lib\libstdc++.a(del_op.o)
 .comment       0x00000000       0x27 c:/altera/12.1sp1/nios2eds/bin/gnu/h-i686-mingw32/bin/../lib/gcc/nios2-elf/4.1.2/../../../../nios2-elf/lib\libstdc++.a(si_class_type_info.o)
 .comment       0x00000000       0x27 c:/altera/12.1sp1/nios2eds/bin/gnu/h-i686-mingw32/bin/../lib/gcc/nios2-elf/4.1.2/../../../../nios2-elf/lib\libstdc++.a(tinfo.o)
 .comment       0x00000000       0x27 c:/altera/12.1sp1/nios2eds/bin/gnu/h-i686-mingw32/bin/../lib/gcc/nios2-elf/4.1.2/../../../../nios2-elf/lib\libc.a(lib_a-malloc.o)
 .comment       0x00000000       0x27 c:/altera/12.1sp1/nios2eds/bin/gnu/h-i686-mingw32/bin/../lib/gcc/nios2-elf/4.1.2/../../../../nios2-elf/lib\libc.a(lib_a-mallocr.o)
 .comment       0x00000000       0x27 c:/altera/12.1sp1/nios2eds/bin/gnu/h-i686-mingw32/bin/../lib/gcc/nios2-elf/4.1.2/../../../../nios2-elf/lib\libc.a(lib_a-puts.o)
 .comment       0x00000000       0x27 c:/altera/12.1sp1/nios2eds/bin/gnu/h-i686-mingw32/bin/../lib/gcc/nios2-elf/4.1.2/../../../../nios2-elf/lib\libc.a(lib_a-sbrkr.o)
 .comment       0x00000000       0x27 c:/altera/12.1sp1/nios2eds/bin/gnu/h-i686-mingw32/bin/../lib/gcc/nios2-elf/4.1.2/../../../../nios2-elf/lib\libc.a(lib_a-strlen.o)
 .comment       0x00000000       0x27 c:/altera/12.1sp1/nios2eds/bin/gnu/h-i686-mingw32/bin/../lib/gcc/nios2-elf/4.1.2/../../../../nios2-elf/lib\libc.a(lib_a-freer.o)
 .comment       0x00000000       0x27 c:/altera/12.1sp1/nios2eds/bin/gnu/h-i686-mingw32/bin/../lib/gcc/nios2-elf/4.1.2/../../../../nios2-elf/lib\libc.a(lib_a-fvwrite.o)
 .comment       0x00000000       0x27 c:/altera/12.1sp1/nios2eds/bin/gnu/h-i686-mingw32/bin/../lib/gcc/nios2-elf/4.1.2/../../../../nios2-elf/lib\libc.a(lib_a-impure.o)
 .comment       0x00000000       0x27 c:/altera/12.1sp1/nios2eds/bin/gnu/h-i686-mingw32/bin/../lib/gcc/nios2-elf/4.1.2/../../../../nios2-elf/lib\libc.a(lib_a-int_errno.o)
 .comment       0x00000000       0x27 c:/altera/12.1sp1/nios2eds/bin/gnu/h-i686-mingw32/bin/../lib/gcc/nios2-elf/4.1.2/../../../../nios2-elf/lib\libc.a(lib_a-memchr.o)
 .comment       0x00000000       0x27 c:/altera/12.1sp1/nios2eds/bin/gnu/h-i686-mingw32/bin/../lib/gcc/nios2-elf/4.1.2/../../../../nios2-elf/lib\libc.a(lib_a-memcpy.o)
 .comment       0x00000000       0x27 c:/altera/12.1sp1/nios2eds/bin/gnu/h-i686-mingw32/bin/../lib/gcc/nios2-elf/4.1.2/../../../../nios2-elf/lib\libc.a(lib_a-memmove.o)
 .comment       0x00000000       0x27 c:/altera/12.1sp1/nios2eds/bin/gnu/h-i686-mingw32/bin/../lib/gcc/nios2-elf/4.1.2/../../../../nios2-elf/lib\libc.a(lib_a-reallocr.o)
 .comment       0x00000000       0x27 c:/altera/12.1sp1/nios2eds/bin/gnu/h-i686-mingw32/bin/../lib/gcc/nios2-elf/4.1.2/../../../../nios2-elf/lib\libc.a(lib_a-wsetup.o)
 .comment       0x00000000       0x27 c:/altera/12.1sp1/nios2eds/bin/gnu/h-i686-mingw32/bin/../lib/gcc/nios2-elf/4.1.2/../../../../nios2-elf/lib\libc.a(lib_a-fflush.o)
 .comment       0x00000000       0x27 c:/altera/12.1sp1/nios2eds/bin/gnu/h-i686-mingw32/bin/../lib/gcc/nios2-elf/4.1.2/../../../../nios2-elf/lib\libc.a(lib_a-findfp.o)
 .comment       0x00000000       0x27 c:/altera/12.1sp1/nios2eds/bin/gnu/h-i686-mingw32/bin/../lib/gcc/nios2-elf/4.1.2/../../../../nios2-elf/lib\libc.a(lib_a-fwalk.o)
 .comment       0x00000000       0x27 c:/altera/12.1sp1/nios2eds/bin/gnu/h-i686-mingw32/bin/../lib/gcc/nios2-elf/4.1.2/../../../../nios2-elf/lib\libc.a(lib_a-makebuf.o)
 .comment       0x00000000       0x27 c:/altera/12.1sp1/nios2eds/bin/gnu/h-i686-mingw32/bin/../lib/gcc/nios2-elf/4.1.2/../../../../nios2-elf/lib\libc.a(lib_a-memset.o)
 .comment       0x00000000       0x27 c:/altera/12.1sp1/nios2eds/bin/gnu/h-i686-mingw32/bin/../lib/gcc/nios2-elf/4.1.2/../../../../nios2-elf/lib\libc.a(lib_a-stdio.o)
 .comment       0x00000000       0x27 c:/altera/12.1sp1/nios2eds/bin/gnu/h-i686-mingw32/bin/../lib/gcc/nios2-elf/4.1.2/../../../../nios2-elf/lib\libc.a(lib_a-writer.o)
 .comment       0x00000000       0x27 c:/altera/12.1sp1/nios2eds/bin/gnu/h-i686-mingw32/bin/../lib/gcc/nios2-elf/4.1.2/../../../../nios2-elf/lib\libc.a(lib_a-closer.o)
 .comment       0x00000000       0x27 c:/altera/12.1sp1/nios2eds/bin/gnu/h-i686-mingw32/bin/../lib/gcc/nios2-elf/4.1.2/../../../../nios2-elf/lib\libc.a(lib_a-fclose.o)
 .comment       0x00000000       0x27 c:/altera/12.1sp1/nios2eds/bin/gnu/h-i686-mingw32/bin/../lib/gcc/nios2-elf/4.1.2/../../../../nios2-elf/lib\libc.a(lib_a-fstatr.o)
 .comment       0x00000000       0x27 c:/altera/12.1sp1/nios2eds/bin/gnu/h-i686-mingw32/bin/../lib/gcc/nios2-elf/4.1.2/../../../../nios2-elf/lib\libc.a(lib_a-isattyr.o)
 .comment       0x00000000       0x27 c:/altera/12.1sp1/nios2eds/bin/gnu/h-i686-mingw32/bin/../lib/gcc/nios2-elf/4.1.2/../../../../nios2-elf/lib\libc.a(lib_a-lseekr.o)
 .comment       0x00000000       0x27 c:/altera/12.1sp1/nios2eds/bin/gnu/h-i686-mingw32/bin/../lib/gcc/nios2-elf/4.1.2/../../../../nios2-elf/lib\libc.a(lib_a-readr.o)
 .comment       0x00000000       0x27 ../transmitter_test_bsp/\libucosii_bsp.a(alt_close.o)
 .comment       0x00000000       0x27 ../transmitter_test_bsp/\libucosii_bsp.a(alt_dev.o)
 .comment       0x00000000       0x27 ../transmitter_test_bsp/\libucosii_bsp.a(alt_errno.o)
 .comment       0x00000000       0x27 ../transmitter_test_bsp/\libucosii_bsp.a(alt_fstat.o)
 .comment       0x00000000       0x27 ../transmitter_test_bsp/\libucosii_bsp.a(alt_isatty.o)
 .comment       0x00000000       0x27 ../transmitter_test_bsp/\libucosii_bsp.a(alt_load.o)
 .comment       0x00000000       0x27 ../transmitter_test_bsp/\libucosii_bsp.a(alt_lseek.o)
 .comment       0x00000000       0x27 ../transmitter_test_bsp/\libucosii_bsp.a(alt_main.o)
 .comment       0x00000000       0x27 ../transmitter_test_bsp/\libucosii_bsp.a(alt_read.o)
 .comment       0x00000000       0x27 ../transmitter_test_bsp/\libucosii_bsp.a(alt_release_fd.o)
 .comment       0x00000000       0x27 ../transmitter_test_bsp/\libucosii_bsp.a(alt_sbrk.o)
 .comment       0x00000000       0x27 ../transmitter_test_bsp/\libucosii_bsp.a(alt_write.o)
 .comment       0x00000000       0x27 ../transmitter_test_bsp/\libucosii_bsp.a(alt_env_lock.o)
 .comment       0x00000000       0x27 ../transmitter_test_bsp/\libucosii_bsp.a(alt_malloc_lock.o)
 .comment       0x00000000       0x27 ../transmitter_test_bsp/\libucosii_bsp.a(os_core.o)
 .comment       0x00000000       0x27 ../transmitter_test_bsp/\libucosii_bsp.a(os_dbg.o)
 .comment       0x00000000       0x27 ../transmitter_test_bsp/\libucosii_bsp.a(os_flag.o)
 .comment       0x00000000       0x27 ../transmitter_test_bsp/\libucosii_bsp.a(os_mem.o)
 .comment       0x00000000       0x27 ../transmitter_test_bsp/\libucosii_bsp.a(os_q.o)
 .comment       0x00000000       0x27 ../transmitter_test_bsp/\libucosii_bsp.a(os_sem.o)
 .comment       0x00000000       0x27 ../transmitter_test_bsp/\libucosii_bsp.a(os_task.o)
 .comment       0x00000000       0x27 ../transmitter_test_bsp/\libucosii_bsp.a(os_time.o)
 .comment       0x00000000       0x27 ../transmitter_test_bsp/\libucosii_bsp.a(alt_sys_init.o)
 .comment       0x00000000       0x27 ../transmitter_test_bsp/\libucosii_bsp.a(altera_avalon_epcs_flash_controller.o)
 .comment       0x00000000       0x27 ../transmitter_test_bsp/\libucosii_bsp.a(altera_avalon_jtag_uart_fd.o)
 .comment       0x00000000       0x27 ../transmitter_test_bsp/\libucosii_bsp.a(altera_avalon_jtag_uart_init.o)
 .comment       0x00000000       0x27 ../transmitter_test_bsp/\libucosii_bsp.a(altera_avalon_jtag_uart_ioctl.o)
 .comment       0x00000000       0x27 ../transmitter_test_bsp/\libucosii_bsp.a(altera_avalon_jtag_uart_read.o)
 .comment       0x00000000       0x27 ../transmitter_test_bsp/\libucosii_bsp.a(altera_avalon_jtag_uart_write.o)
 .comment       0x00000000       0x27 ../transmitter_test_bsp/\libucosii_bsp.a(altera_avalon_timer_sc.o)
 .comment       0x00000000       0x27 ../transmitter_test_bsp/\libucosii_bsp.a(epcs_commands.o)
 .comment       0x00000000       0x27 ../transmitter_test_bsp/\libucosii_bsp.a(alt_alarm_start.o)
 .comment       0x00000000       0x27 ../transmitter_test_bsp/\libucosii_bsp.a(alt_dcache_flush_all.o)
 .comment       0x00000000       0x27 ../transmitter_test_bsp/\libucosii_bsp.a(alt_dev_llist_insert.o)
 .comment       0x00000000       0x27 ../transmitter_test_bsp/\libucosii_bsp.a(alt_do_ctors.o)
 .comment       0x00000000       0x27 ../transmitter_test_bsp/\libucosii_bsp.a(alt_do_dtors.o)
 .comment       0x00000000       0x27 ../transmitter_test_bsp/\libucosii_bsp.a(alt_flash_dev.o)
 .comment       0x00000000       0x27 ../transmitter_test_bsp/\libucosii_bsp.a(alt_icache_flush_all.o)
 .comment       0x00000000       0x27 ../transmitter_test_bsp/\libucosii_bsp.a(alt_iic.o)
 .comment       0x00000000       0x27 ../transmitter_test_bsp/\libucosii_bsp.a(alt_iic_isr_register.o)
 .comment       0x00000000       0x27 ../transmitter_test_bsp/\libucosii_bsp.a(alt_io_redirect.o)
 .comment       0x00000000       0x27 ../transmitter_test_bsp/\libucosii_bsp.a(alt_irq_handler.o)
 .comment       0x00000000       0x27 ../transmitter_test_bsp/\libucosii_bsp.a(alt_irq_vars.o)
 .comment       0x00000000       0x27 ../transmitter_test_bsp/\libucosii_bsp.a(alt_open.o)
 .comment       0x00000000       0x27 ../transmitter_test_bsp/\libucosii_bsp.a(alt_tick.o)
 .comment       0x00000000       0x27 ../transmitter_test_bsp/\libucosii_bsp.a(altera_nios2_qsys_irq.o)
 .comment       0x00000000       0x27 ../transmitter_test_bsp/\libucosii_bsp.a(os_cpu_c.o)
 .comment       0x00000000       0x27 ../transmitter_test_bsp/\libucosii_bsp.a(altera_avalon_spi.o)
 .comment       0x00000000       0x27 ../transmitter_test_bsp/\libucosii_bsp.a(alt_find_dev.o)
 .comment       0x00000000       0x27 ../transmitter_test_bsp/\libucosii_bsp.a(alt_find_file.o)
 .comment       0x00000000       0x27 ../transmitter_test_bsp/\libucosii_bsp.a(alt_get_fd.o)
 .comment       0x00000000       0x27 ../transmitter_test_bsp/\libucosii_bsp.a(alt_icache_flush.o)
 .comment       0x00000000       0x27 c:/altera/12.1sp1/nios2eds/bin/gnu/h-i686-mingw32/bin/../lib/gcc/nios2-elf/4.1.2/../../../../nios2-elf/lib\libc.a(lib_a-atexit.o)
 .comment       0x00000000       0x27 c:/altera/12.1sp1/nios2eds/bin/gnu/h-i686-mingw32/bin/../lib/gcc/nios2-elf/4.1.2/../../../../nios2-elf/lib\libc.a(lib_a-exit.o)
 .comment       0x00000000       0x27 c:/altera/12.1sp1/nios2eds/bin/gnu/h-i686-mingw32/bin/../lib/gcc/nios2-elf/4.1.2/../../../../nios2-elf/lib\libc.a(lib_a-memcmp.o)
 .comment       0x00000000       0x27 c:/altera/12.1sp1/nios2eds/bin/gnu/h-i686-mingw32/bin/../lib/gcc/nios2-elf/4.1.2/../../../../nios2-elf/lib\libc.a(lib_a-__atexit.o)
 .comment       0x00000000       0x27 c:/altera/12.1sp1/nios2eds/bin/gnu/h-i686-mingw32/bin/../lib/gcc/nios2-elf/4.1.2/../../../../nios2-elf/lib\libc.a(lib_a-__call_atexit.o)
 .comment       0x00000000       0x27 c:/altera/12.1sp1/nios2eds/bin/gnu/h-i686-mingw32/bin/../lib/gcc/nios2-elf/4.1.2\libgcc.a(lib2-divmod.o)
 .comment       0x00000000       0x27 ../transmitter_test_bsp/\libucosii_bsp.a(alt_exit.o)

.debug
 *(.debug)

.line
 *(.line)

.debug_srcinfo
 *(.debug_srcinfo)

.debug_sfnames
 *(.debug_sfnames)

.debug_aranges  0x00000000      0xbb8
 *(.debug_aranges)
 .debug_aranges
                0x00000000       0x28 ../transmitter_test_bsp//obj/HAL/src/crt0.o
 .debug_aranges
                0x00000028       0x20 obj/default/transmitterInterface.o
 .debug_aranges
                0x00000048       0x20 obj/default/transmitter_test.o
 .debug_aranges
                0x00000068       0x20 c:/altera/12.1sp1/nios2eds/bin/gnu/h-i686-mingw32/bin/../lib/gcc/nios2-elf/4.1.2/../../../../nios2-elf/lib\libstdc++.a(class_type_info.o)
 .debug_aranges
                0x00000088       0x20 c:/altera/12.1sp1/nios2eds/bin/gnu/h-i686-mingw32/bin/../lib/gcc/nios2-elf/4.1.2/../../../../nios2-elf/lib\libstdc++.a(del_op.o)
 .debug_aranges
                0x000000a8       0x20 c:/altera/12.1sp1/nios2eds/bin/gnu/h-i686-mingw32/bin/../lib/gcc/nios2-elf/4.1.2/../../../../nios2-elf/lib\libstdc++.a(si_class_type_info.o)
 .debug_aranges
                0x000000c8       0x20 c:/altera/12.1sp1/nios2eds/bin/gnu/h-i686-mingw32/bin/../lib/gcc/nios2-elf/4.1.2/../../../../nios2-elf/lib\libstdc++.a(tinfo.o)
 .debug_aranges
                0x000000e8       0x20 c:/altera/12.1sp1/nios2eds/bin/gnu/h-i686-mingw32/bin/../lib/gcc/nios2-elf/4.1.2/../../../../nios2-elf/lib\libc.a(lib_a-malloc.o)
 .debug_aranges
                0x00000108       0x20 c:/altera/12.1sp1/nios2eds/bin/gnu/h-i686-mingw32/bin/../lib/gcc/nios2-elf/4.1.2/../../../../nios2-elf/lib\libc.a(lib_a-mallocr.o)
 .debug_aranges
                0x00000128       0x20 c:/altera/12.1sp1/nios2eds/bin/gnu/h-i686-mingw32/bin/../lib/gcc/nios2-elf/4.1.2/../../../../nios2-elf/lib\libc.a(lib_a-puts.o)
 .debug_aranges
                0x00000148       0x20 c:/altera/12.1sp1/nios2eds/bin/gnu/h-i686-mingw32/bin/../lib/gcc/nios2-elf/4.1.2/../../../../nios2-elf/lib\libc.a(lib_a-sbrkr.o)
 .debug_aranges
                0x00000168       0x20 c:/altera/12.1sp1/nios2eds/bin/gnu/h-i686-mingw32/bin/../lib/gcc/nios2-elf/4.1.2/../../../../nios2-elf/lib\libc.a(lib_a-strlen.o)
 .debug_aranges
                0x00000188       0x20 c:/altera/12.1sp1/nios2eds/bin/gnu/h-i686-mingw32/bin/../lib/gcc/nios2-elf/4.1.2/../../../../nios2-elf/lib\libc.a(lib_a-freer.o)
 .debug_aranges
                0x000001a8       0x20 c:/altera/12.1sp1/nios2eds/bin/gnu/h-i686-mingw32/bin/../lib/gcc/nios2-elf/4.1.2/../../../../nios2-elf/lib\libc.a(lib_a-fvwrite.o)
 .debug_aranges
                0x000001c8       0x20 c:/altera/12.1sp1/nios2eds/bin/gnu/h-i686-mingw32/bin/../lib/gcc/nios2-elf/4.1.2/../../../../nios2-elf/lib\libc.a(lib_a-memchr.o)
 .debug_aranges
                0x000001e8       0x20 c:/altera/12.1sp1/nios2eds/bin/gnu/h-i686-mingw32/bin/../lib/gcc/nios2-elf/4.1.2/../../../../nios2-elf/lib\libc.a(lib_a-memcpy.o)
 .debug_aranges
                0x00000208       0x20 c:/altera/12.1sp1/nios2eds/bin/gnu/h-i686-mingw32/bin/../lib/gcc/nios2-elf/4.1.2/../../../../nios2-elf/lib\libc.a(lib_a-memmove.o)
 .debug_aranges
                0x00000228       0x20 c:/altera/12.1sp1/nios2eds/bin/gnu/h-i686-mingw32/bin/../lib/gcc/nios2-elf/4.1.2/../../../../nios2-elf/lib\libc.a(lib_a-reallocr.o)
 .debug_aranges
                0x00000248       0x20 c:/altera/12.1sp1/nios2eds/bin/gnu/h-i686-mingw32/bin/../lib/gcc/nios2-elf/4.1.2/../../../../nios2-elf/lib\libc.a(lib_a-wsetup.o)
 .debug_aranges
                0x00000268       0x20 c:/altera/12.1sp1/nios2eds/bin/gnu/h-i686-mingw32/bin/../lib/gcc/nios2-elf/4.1.2/../../../../nios2-elf/lib\libc.a(lib_a-fflush.o)
 .debug_aranges
                0x00000288       0x20 c:/altera/12.1sp1/nios2eds/bin/gnu/h-i686-mingw32/bin/../lib/gcc/nios2-elf/4.1.2/../../../../nios2-elf/lib\libc.a(lib_a-findfp.o)
 .debug_aranges
                0x000002a8       0x20 c:/altera/12.1sp1/nios2eds/bin/gnu/h-i686-mingw32/bin/../lib/gcc/nios2-elf/4.1.2/../../../../nios2-elf/lib\libc.a(lib_a-fwalk.o)
 .debug_aranges
                0x000002c8       0x20 c:/altera/12.1sp1/nios2eds/bin/gnu/h-i686-mingw32/bin/../lib/gcc/nios2-elf/4.1.2/../../../../nios2-elf/lib\libc.a(lib_a-makebuf.o)
 .debug_aranges
                0x000002e8       0x20 c:/altera/12.1sp1/nios2eds/bin/gnu/h-i686-mingw32/bin/../lib/gcc/nios2-elf/4.1.2/../../../../nios2-elf/lib\libc.a(lib_a-memset.o)
 .debug_aranges
                0x00000308       0x20 c:/altera/12.1sp1/nios2eds/bin/gnu/h-i686-mingw32/bin/../lib/gcc/nios2-elf/4.1.2/../../../../nios2-elf/lib\libc.a(lib_a-stdio.o)
 .debug_aranges
                0x00000328       0x20 c:/altera/12.1sp1/nios2eds/bin/gnu/h-i686-mingw32/bin/../lib/gcc/nios2-elf/4.1.2/../../../../nios2-elf/lib\libc.a(lib_a-writer.o)
 .debug_aranges
                0x00000348       0x20 c:/altera/12.1sp1/nios2eds/bin/gnu/h-i686-mingw32/bin/../lib/gcc/nios2-elf/4.1.2/../../../../nios2-elf/lib\libc.a(lib_a-closer.o)
 .debug_aranges
                0x00000368       0x20 c:/altera/12.1sp1/nios2eds/bin/gnu/h-i686-mingw32/bin/../lib/gcc/nios2-elf/4.1.2/../../../../nios2-elf/lib\libc.a(lib_a-fclose.o)
 .debug_aranges
                0x00000388       0x20 c:/altera/12.1sp1/nios2eds/bin/gnu/h-i686-mingw32/bin/../lib/gcc/nios2-elf/4.1.2/../../../../nios2-elf/lib\libc.a(lib_a-fstatr.o)
 .debug_aranges
                0x000003a8       0x20 c:/altera/12.1sp1/nios2eds/bin/gnu/h-i686-mingw32/bin/../lib/gcc/nios2-elf/4.1.2/../../../../nios2-elf/lib\libc.a(lib_a-isattyr.o)
 .debug_aranges
                0x000003c8       0x20 c:/altera/12.1sp1/nios2eds/bin/gnu/h-i686-mingw32/bin/../lib/gcc/nios2-elf/4.1.2/../../../../nios2-elf/lib\libc.a(lib_a-lseekr.o)
 .debug_aranges
                0x000003e8       0x20 c:/altera/12.1sp1/nios2eds/bin/gnu/h-i686-mingw32/bin/../lib/gcc/nios2-elf/4.1.2/../../../../nios2-elf/lib\libc.a(lib_a-readr.o)
 .debug_aranges
                0x00000408       0x20 ../transmitter_test_bsp/\libucosii_bsp.a(alt_close.o)
 .debug_aranges
                0x00000428       0x20 ../transmitter_test_bsp/\libucosii_bsp.a(alt_dev.o)
 .debug_aranges
                0x00000448       0x20 ../transmitter_test_bsp/\libucosii_bsp.a(alt_fstat.o)
 .debug_aranges
                0x00000468       0x20 ../transmitter_test_bsp/\libucosii_bsp.a(alt_isatty.o)
 .debug_aranges
                0x00000488       0x20 ../transmitter_test_bsp/\libucosii_bsp.a(alt_load.o)
 .debug_aranges
                0x000004a8       0x20 ../transmitter_test_bsp/\libucosii_bsp.a(alt_lseek.o)
 .debug_aranges
                0x000004c8       0x20 ../transmitter_test_bsp/\libucosii_bsp.a(alt_main.o)
 .debug_aranges
                0x000004e8       0x20 ../transmitter_test_bsp/\libucosii_bsp.a(alt_read.o)
 .debug_aranges
                0x00000508       0x20 ../transmitter_test_bsp/\libucosii_bsp.a(alt_release_fd.o)
 .debug_aranges
                0x00000528       0x20 ../transmitter_test_bsp/\libucosii_bsp.a(alt_sbrk.o)
 .debug_aranges
                0x00000548       0x20 ../transmitter_test_bsp/\libucosii_bsp.a(alt_write.o)
 .debug_aranges
                0x00000568       0x20 ../transmitter_test_bsp/\libucosii_bsp.a(alt_env_lock.o)
 .debug_aranges
                0x00000588       0x20 ../transmitter_test_bsp/\libucosii_bsp.a(alt_malloc_lock.o)
 .debug_aranges
                0x000005a8       0x20 ../transmitter_test_bsp/\libucosii_bsp.a(os_core.o)
 .debug_aranges
                0x000005c8       0x20 ../transmitter_test_bsp/\libucosii_bsp.a(os_dbg.o)
 .debug_aranges
                0x000005e8       0x20 ../transmitter_test_bsp/\libucosii_bsp.a(os_flag.o)
 .debug_aranges
                0x00000608       0x20 ../transmitter_test_bsp/\libucosii_bsp.a(os_mem.o)
 .debug_aranges
                0x00000628       0x20 ../transmitter_test_bsp/\libucosii_bsp.a(os_q.o)
 .debug_aranges
                0x00000648       0x20 ../transmitter_test_bsp/\libucosii_bsp.a(os_sem.o)
 .debug_aranges
                0x00000668       0x20 ../transmitter_test_bsp/\libucosii_bsp.a(os_task.o)
 .debug_aranges
                0x00000688       0x20 ../transmitter_test_bsp/\libucosii_bsp.a(os_time.o)
 .debug_aranges
                0x000006a8       0x20 ../transmitter_test_bsp/\libucosii_bsp.a(alt_sys_init.o)
 .debug_aranges
                0x000006c8       0x20 ../transmitter_test_bsp/\libucosii_bsp.a(altera_avalon_epcs_flash_controller.o)
 .debug_aranges
                0x000006e8       0x20 ../transmitter_test_bsp/\libucosii_bsp.a(altera_avalon_jtag_uart_fd.o)
 .debug_aranges
                0x00000708       0x20 ../transmitter_test_bsp/\libucosii_bsp.a(altera_avalon_jtag_uart_init.o)
 .debug_aranges
                0x00000728       0x20 ../transmitter_test_bsp/\libucosii_bsp.a(altera_avalon_jtag_uart_ioctl.o)
 .debug_aranges
                0x00000748       0x20 ../transmitter_test_bsp/\libucosii_bsp.a(altera_avalon_jtag_uart_read.o)
 .debug_aranges
                0x00000768       0x20 ../transmitter_test_bsp/\libucosii_bsp.a(altera_avalon_jtag_uart_write.o)
 .debug_aranges
                0x00000788       0x20 ../transmitter_test_bsp/\libucosii_bsp.a(altera_avalon_timer_sc.o)
 .debug_aranges
                0x000007a8       0x20 ../transmitter_test_bsp/\libucosii_bsp.a(epcs_commands.o)
 .debug_aranges
                0x000007c8       0x20 ../transmitter_test_bsp/\libucosii_bsp.a(alt_alarm_start.o)
 .debug_aranges
                0x000007e8       0x20 ../transmitter_test_bsp/\libucosii_bsp.a(alt_dcache_flush_all.o)
 .debug_aranges
                0x00000808       0x20 ../transmitter_test_bsp/\libucosii_bsp.a(alt_dev_llist_insert.o)
 .debug_aranges
                0x00000828       0x20 ../transmitter_test_bsp/\libucosii_bsp.a(alt_do_ctors.o)
 .debug_aranges
                0x00000848       0x20 ../transmitter_test_bsp/\libucosii_bsp.a(alt_do_dtors.o)
 .debug_aranges
                0x00000868       0x20 ../transmitter_test_bsp/\libucosii_bsp.a(alt_flash_dev.o)
 .debug_aranges
                0x00000888       0x20 ../transmitter_test_bsp/\libucosii_bsp.a(alt_icache_flush_all.o)
 .debug_aranges
                0x000008a8       0x20 ../transmitter_test_bsp/\libucosii_bsp.a(alt_iic.o)
 .debug_aranges
                0x000008c8       0x20 ../transmitter_test_bsp/\libucosii_bsp.a(alt_iic_isr_register.o)
 .debug_aranges
                0x000008e8       0x20 ../transmitter_test_bsp/\libucosii_bsp.a(alt_io_redirect.o)
 .debug_aranges
                0x00000908       0x30 ../transmitter_test_bsp/\libucosii_bsp.a(alt_irq_entry.o)
 .debug_aranges
                0x00000938       0x28 ../transmitter_test_bsp/\libucosii_bsp.a(alt_irq_handler.o)
 .debug_aranges
                0x00000960       0x20 ../transmitter_test_bsp/\libucosii_bsp.a(alt_open.o)
 .debug_aranges
                0x00000980       0x20 ../transmitter_test_bsp/\libucosii_bsp.a(alt_tick.o)
 .debug_aranges
                0x000009a0       0x20 ../transmitter_test_bsp/\libucosii_bsp.a(altera_nios2_qsys_irq.o)
 .debug_aranges
                0x000009c0       0x20 ../transmitter_test_bsp/\libucosii_bsp.a(os_cpu_a.o)
 .debug_aranges
                0x000009e0       0x20 ../transmitter_test_bsp/\libucosii_bsp.a(os_cpu_c.o)
 .debug_aranges
                0x00000a00       0x20 ../transmitter_test_bsp/\libucosii_bsp.a(altera_avalon_spi.o)
 .debug_aranges
                0x00000a20       0x38 ../transmitter_test_bsp/\libucosii_bsp.a(alt_exception_entry.o)
 .debug_aranges
                0x00000a58       0x20 ../transmitter_test_bsp/\libucosii_bsp.a(alt_find_dev.o)
 .debug_aranges
                0x00000a78       0x20 ../transmitter_test_bsp/\libucosii_bsp.a(alt_find_file.o)
 .debug_aranges
                0x00000a98       0x20 ../transmitter_test_bsp/\libucosii_bsp.a(alt_get_fd.o)
 .debug_aranges
                0x00000ab8       0x20 ../transmitter_test_bsp/\libucosii_bsp.a(alt_icache_flush.o)
 .debug_aranges
                0x00000ad8       0x20 c:/altera/12.1sp1/nios2eds/bin/gnu/h-i686-mingw32/bin/../lib/gcc/nios2-elf/4.1.2/../../../../nios2-elf/lib\libc.a(lib_a-atexit.o)
 .debug_aranges
                0x00000af8       0x20 c:/altera/12.1sp1/nios2eds/bin/gnu/h-i686-mingw32/bin/../lib/gcc/nios2-elf/4.1.2/../../../../nios2-elf/lib\libc.a(lib_a-exit.o)
 .debug_aranges
                0x00000b18       0x20 c:/altera/12.1sp1/nios2eds/bin/gnu/h-i686-mingw32/bin/../lib/gcc/nios2-elf/4.1.2/../../../../nios2-elf/lib\libc.a(lib_a-memcmp.o)
 .debug_aranges
                0x00000b38       0x20 c:/altera/12.1sp1/nios2eds/bin/gnu/h-i686-mingw32/bin/../lib/gcc/nios2-elf/4.1.2/../../../../nios2-elf/lib\libc.a(lib_a-__atexit.o)
 .debug_aranges
                0x00000b58       0x20 c:/altera/12.1sp1/nios2eds/bin/gnu/h-i686-mingw32/bin/../lib/gcc/nios2-elf/4.1.2/../../../../nios2-elf/lib\libc.a(lib_a-__call_atexit.o)
 .debug_aranges
                0x00000b78       0x20 c:/altera/12.1sp1/nios2eds/bin/gnu/h-i686-mingw32/bin/../lib/gcc/nios2-elf/4.1.2\libgcc.a(lib2-divmod.o)
 .debug_aranges
                0x00000b98       0x20 ../transmitter_test_bsp/\libucosii_bsp.a(alt_exit.o)

.debug_pubnames
                0x00000000     0x233a
 *(.debug_pubnames)
 .debug_pubnames
                0x00000000      0x225 obj/default/transmitterInterface.o
 .debug_pubnames
                0x00000225       0x40 obj/default/transmitter_test.o
 .debug_pubnames
                0x00000265      0x1a8 c:/altera/12.1sp1/nios2eds/bin/gnu/h-i686-mingw32/bin/../lib/gcc/nios2-elf/4.1.2/../../../../nios2-elf/lib\libstdc++.a(class_type_info.o)
 .debug_pubnames
                0x0000040d       0x26 c:/altera/12.1sp1/nios2eds/bin/gnu/h-i686-mingw32/bin/../lib/gcc/nios2-elf/4.1.2/../../../../nios2-elf/lib\libstdc++.a(del_op.o)
 .debug_pubnames
                0x00000433      0x166 c:/altera/12.1sp1/nios2eds/bin/gnu/h-i686-mingw32/bin/../lib/gcc/nios2-elf/4.1.2/../../../../nios2-elf/lib\libstdc++.a(si_class_type_info.o)
 .debug_pubnames
                0x00000599       0xf5 c:/altera/12.1sp1/nios2eds/bin/gnu/h-i686-mingw32/bin/../lib/gcc/nios2-elf/4.1.2/../../../../nios2-elf/lib\libstdc++.a(tinfo.o)
 .debug_pubnames
                0x0000068e       0x26 c:/altera/12.1sp1/nios2eds/bin/gnu/h-i686-mingw32/bin/../lib/gcc/nios2-elf/4.1.2/../../../../nios2-elf/lib\libc.a(lib_a-malloc.o)
 .debug_pubnames
                0x000006b4       0xce c:/altera/12.1sp1/nios2eds/bin/gnu/h-i686-mingw32/bin/../lib/gcc/nios2-elf/4.1.2/../../../../nios2-elf/lib\libc.a(lib_a-mallocr.o)
 .debug_pubnames
                0x00000782       0x27 c:/altera/12.1sp1/nios2eds/bin/gnu/h-i686-mingw32/bin/../lib/gcc/nios2-elf/4.1.2/../../../../nios2-elf/lib\libc.a(lib_a-puts.o)
 .debug_pubnames
                0x000007a9       0x1e c:/altera/12.1sp1/nios2eds/bin/gnu/h-i686-mingw32/bin/../lib/gcc/nios2-elf/4.1.2/../../../../nios2-elf/lib\libc.a(lib_a-sbrkr.o)
 .debug_pubnames
                0x000007c7       0x1d c:/altera/12.1sp1/nios2eds/bin/gnu/h-i686-mingw32/bin/../lib/gcc/nios2-elf/4.1.2/../../../../nios2-elf/lib\libc.a(lib_a-strlen.o)
 .debug_pubnames
                0x000007e4       0x31 c:/altera/12.1sp1/nios2eds/bin/gnu/h-i686-mingw32/bin/../lib/gcc/nios2-elf/4.1.2/../../../../nios2-elf/lib\libc.a(lib_a-freer.o)
 .debug_pubnames
                0x00000815       0x23 c:/altera/12.1sp1/nios2eds/bin/gnu/h-i686-mingw32/bin/../lib/gcc/nios2-elf/4.1.2/../../../../nios2-elf/lib\libc.a(lib_a-fvwrite.o)
 .debug_pubnames
                0x00000838       0x39 c:/altera/12.1sp1/nios2eds/bin/gnu/h-i686-mingw32/bin/../lib/gcc/nios2-elf/4.1.2/../../../../nios2-elf/lib\libc.a(lib_a-impure.o)
 .debug_pubnames
                0x00000871       0x1c c:/altera/12.1sp1/nios2eds/bin/gnu/h-i686-mingw32/bin/../lib/gcc/nios2-elf/4.1.2/../../../../nios2-elf/lib\libc.a(lib_a-int_errno.o)
 .debug_pubnames
                0x0000088d       0x1d c:/altera/12.1sp1/nios2eds/bin/gnu/h-i686-mingw32/bin/../lib/gcc/nios2-elf/4.1.2/../../../../nios2-elf/lib\libc.a(lib_a-memchr.o)
 .debug_pubnames
                0x000008aa       0x1d c:/altera/12.1sp1/nios2eds/bin/gnu/h-i686-mingw32/bin/../lib/gcc/nios2-elf/4.1.2/../../../../nios2-elf/lib\libc.a(lib_a-memcpy.o)
 .debug_pubnames
                0x000008c7       0x1e c:/altera/12.1sp1/nios2eds/bin/gnu/h-i686-mingw32/bin/../lib/gcc/nios2-elf/4.1.2/../../../../nios2-elf/lib\libc.a(lib_a-memmove.o)
 .debug_pubnames
                0x000008e5       0x21 c:/altera/12.1sp1/nios2eds/bin/gnu/h-i686-mingw32/bin/../lib/gcc/nios2-elf/4.1.2/../../../../nios2-elf/lib\libc.a(lib_a-reallocr.o)
 .debug_pubnames
                0x00000906       0x22 c:/altera/12.1sp1/nios2eds/bin/gnu/h-i686-mingw32/bin/../lib/gcc/nios2-elf/4.1.2/../../../../nios2-elf/lib\libc.a(lib_a-wsetup.o)
 .debug_pubnames
                0x00000928       0x2b c:/altera/12.1sp1/nios2eds/bin/gnu/h-i686-mingw32/bin/../lib/gcc/nios2-elf/4.1.2/../../../../nios2-elf/lib\libc.a(lib_a-fflush.o)
 .debug_pubnames
                0x00000953       0xdb c:/altera/12.1sp1/nios2eds/bin/gnu/h-i686-mingw32/bin/../lib/gcc/nios2-elf/4.1.2/../../../../nios2-elf/lib\libc.a(lib_a-findfp.o)
 .debug_pubnames
                0x00000a2e       0x2e c:/altera/12.1sp1/nios2eds/bin/gnu/h-i686-mingw32/bin/../lib/gcc/nios2-elf/4.1.2/../../../../nios2-elf/lib\libc.a(lib_a-fwalk.o)
 .debug_pubnames
                0x00000a5c       0x23 c:/altera/12.1sp1/nios2eds/bin/gnu/h-i686-mingw32/bin/../lib/gcc/nios2-elf/4.1.2/../../../../nios2-elf/lib\libc.a(lib_a-makebuf.o)
 .debug_pubnames
                0x00000a7f       0x1d c:/altera/12.1sp1/nios2eds/bin/gnu/h-i686-mingw32/bin/../lib/gcc/nios2-elf/4.1.2/../../../../nios2-elf/lib\libc.a(lib_a-memset.o)
 .debug_pubnames
                0x00000a9c       0x44 c:/altera/12.1sp1/nios2eds/bin/gnu/h-i686-mingw32/bin/../lib/gcc/nios2-elf/4.1.2/../../../../nios2-elf/lib\libc.a(lib_a-stdio.o)
 .debug_pubnames
                0x00000ae0       0x1f c:/altera/12.1sp1/nios2eds/bin/gnu/h-i686-mingw32/bin/../lib/gcc/nios2-elf/4.1.2/../../../../nios2-elf/lib\libc.a(lib_a-writer.o)
 .debug_pubnames
                0x00000aff       0x1f c:/altera/12.1sp1/nios2eds/bin/gnu/h-i686-mingw32/bin/../lib/gcc/nios2-elf/4.1.2/../../../../nios2-elf/lib\libc.a(lib_a-closer.o)
 .debug_pubnames
                0x00000b1e       0x2b c:/altera/12.1sp1/nios2eds/bin/gnu/h-i686-mingw32/bin/../lib/gcc/nios2-elf/4.1.2/../../../../nios2-elf/lib\libc.a(lib_a-fclose.o)
 .debug_pubnames
                0x00000b49       0x1f c:/altera/12.1sp1/nios2eds/bin/gnu/h-i686-mingw32/bin/../lib/gcc/nios2-elf/4.1.2/../../../../nios2-elf/lib\libc.a(lib_a-fstatr.o)
 .debug_pubnames
                0x00000b68       0x20 c:/altera/12.1sp1/nios2eds/bin/gnu/h-i686-mingw32/bin/../lib/gcc/nios2-elf/4.1.2/../../../../nios2-elf/lib\libc.a(lib_a-isattyr.o)
 .debug_pubnames
                0x00000b88       0x1f c:/altera/12.1sp1/nios2eds/bin/gnu/h-i686-mingw32/bin/../lib/gcc/nios2-elf/4.1.2/../../../../nios2-elf/lib\libc.a(lib_a-lseekr.o)
 .debug_pubnames
                0x00000ba7       0x1e c:/altera/12.1sp1/nios2eds/bin/gnu/h-i686-mingw32/bin/../lib/gcc/nios2-elf/4.1.2/../../../../nios2-elf/lib\libc.a(lib_a-readr.o)
 .debug_pubnames
                0x00000bc5       0x1c ../transmitter_test_bsp/\libucosii_bsp.a(alt_close.o)
 .debug_pubnames
                0x00000be1       0x78 ../transmitter_test_bsp/\libucosii_bsp.a(alt_dev.o)
 .debug_pubnames
                0x00000c59       0x20 ../transmitter_test_bsp/\libucosii_bsp.a(alt_errno.o)
 .debug_pubnames
                0x00000c79       0x1c ../transmitter_test_bsp/\libucosii_bsp.a(alt_fstat.o)
 .debug_pubnames
                0x00000c95       0x1d ../transmitter_test_bsp/\libucosii_bsp.a(alt_isatty.o)
 .debug_pubnames
                0x00000cb2       0x1f ../transmitter_test_bsp/\libucosii_bsp.a(alt_load.o)
 .debug_pubnames
                0x00000cd1       0x1c ../transmitter_test_bsp/\libucosii_bsp.a(alt_lseek.o)
 .debug_pubnames
                0x00000ced       0x46 ../transmitter_test_bsp/\libucosii_bsp.a(alt_main.o)
 .debug_pubnames
                0x00000d33       0x1b ../transmitter_test_bsp/\libucosii_bsp.a(alt_read.o)
 .debug_pubnames
                0x00000d4e       0x25 ../transmitter_test_bsp/\libucosii_bsp.a(alt_release_fd.o)
 .debug_pubnames
                0x00000d73       0x1b ../transmitter_test_bsp/\libucosii_bsp.a(alt_sbrk.o)
 .debug_pubnames
                0x00000d8e       0x1c ../transmitter_test_bsp/\libucosii_bsp.a(alt_write.o)
 .debug_pubnames
                0x00000daa       0x41 ../transmitter_test_bsp/\libucosii_bsp.a(alt_env_lock.o)
 .debug_pubnames
                0x00000deb       0x48 ../transmitter_test_bsp/\libucosii_bsp.a(alt_malloc_lock.o)
 .debug_pubnames
                0x00000e33      0x3f8 ../transmitter_test_bsp/\libucosii_bsp.a(os_core.o)
 .debug_pubnames
                0x0000122b      0x3c5 ../transmitter_test_bsp/\libucosii_bsp.a(os_dbg.o)
 .debug_pubnames
                0x000015f0       0xd0 ../transmitter_test_bsp/\libucosii_bsp.a(os_flag.o)
 .debug_pubnames
                0x000016c0       0x7c ../transmitter_test_bsp/\libucosii_bsp.a(os_mem.o)
 .debug_pubnames
                0x0000173c       0xa9 ../transmitter_test_bsp/\libucosii_bsp.a(os_q.o)
 .debug_pubnames
                0x000017e5       0x8a ../transmitter_test_bsp/\libucosii_bsp.a(os_sem.o)
 .debug_pubnames
                0x0000186f       0xe5 ../transmitter_test_bsp/\libucosii_bsp.a(os_task.o)
 .debug_pubnames
                0x00001954       0x62 ../transmitter_test_bsp/\libucosii_bsp.a(os_time.o)
 .debug_pubnames
                0x000019b6       0x34 ../transmitter_test_bsp/\libucosii_bsp.a(alt_sys_init.o)
 .debug_pubnames
                0x000019ea       0xb5 ../transmitter_test_bsp/\libucosii_bsp.a(altera_avalon_epcs_flash_controller.o)
 .debug_pubnames
                0x00001a9f       0xa5 ../transmitter_test_bsp/\libucosii_bsp.a(altera_avalon_jtag_uart_fd.o)
 .debug_pubnames
                0x00001b44       0x55 ../transmitter_test_bsp/\libucosii_bsp.a(altera_avalon_jtag_uart_init.o)
 .debug_pubnames
                0x00001b99       0x34 ../transmitter_test_bsp/\libucosii_bsp.a(altera_avalon_jtag_uart_ioctl.o)
 .debug_pubnames
                0x00001bcd       0x33 ../transmitter_test_bsp/\libucosii_bsp.a(altera_avalon_jtag_uart_read.o)
 .debug_pubnames
                0x00001c00       0x34 ../transmitter_test_bsp/\libucosii_bsp.a(altera_avalon_jtag_uart_write.o)
 .debug_pubnames
                0x00001c34       0x2f ../transmitter_test_bsp/\libucosii_bsp.a(altera_avalon_timer_sc.o)
 .debug_pubnames
                0x00001c63      0x118 ../transmitter_test_bsp/\libucosii_bsp.a(epcs_commands.o)
 .debug_pubnames
                0x00001d7b       0x26 ../transmitter_test_bsp/\libucosii_bsp.a(alt_alarm_start.o)
 .debug_pubnames
                0x00001da1       0x2b ../transmitter_test_bsp/\libucosii_bsp.a(alt_dcache_flush_all.o)
 .debug_pubnames
                0x00001dcc       0x2b ../transmitter_test_bsp/\libucosii_bsp.a(alt_dev_llist_insert.o)
 .debug_pubnames
                0x00001df7       0x20 ../transmitter_test_bsp/\libucosii_bsp.a(alt_do_ctors.o)
 .debug_pubnames
                0x00001e17       0x20 ../transmitter_test_bsp/\libucosii_bsp.a(alt_do_dtors.o)
 .debug_pubnames
                0x00001e37       0x58 ../transmitter_test_bsp/\libucosii_bsp.a(alt_flash_dev.o)
 .debug_pubnames
                0x00001e8f       0x2b ../transmitter_test_bsp/\libucosii_bsp.a(alt_icache_flush_all.o)
 .debug_pubnames
                0x00001eba       0x6e ../transmitter_test_bsp/\libucosii_bsp.a(alt_iic.o)
 .debug_pubnames
                0x00001f28       0x2b ../transmitter_test_bsp/\libucosii_bsp.a(alt_iic_isr_register.o)
 .debug_pubnames
                0x00001f53       0x26 ../transmitter_test_bsp/\libucosii_bsp.a(alt_io_redirect.o)
 .debug_pubnames
                0x00001f79       0x32 ../transmitter_test_bsp/\libucosii_bsp.a(alt_irq_handler.o)
 .debug_pubnames
                0x00001fab       0x3b ../transmitter_test_bsp/\libucosii_bsp.a(alt_irq_vars.o)
 .debug_pubnames
                0x00001fe6       0x1b ../transmitter_test_bsp/\libucosii_bsp.a(alt_open.o)
 .debug_pubnames
                0x00002001       0x68 ../transmitter_test_bsp/\libucosii_bsp.a(alt_tick.o)
 .debug_pubnames
                0x00002069       0x31 ../transmitter_test_bsp/\libucosii_bsp.a(altera_nios2_qsys_irq.o)
 .debug_pubnames
                0x0000209a       0xcd ../transmitter_test_bsp/\libucosii_bsp.a(os_cpu_c.o)
 .debug_pubnames
                0x00002167       0x2d ../transmitter_test_bsp/\libucosii_bsp.a(altera_avalon_spi.o)
 .debug_pubnames
                0x00002194       0x23 ../transmitter_test_bsp/\libucosii_bsp.a(alt_find_dev.o)
 .debug_pubnames
                0x000021b7       0x24 ../transmitter_test_bsp/\libucosii_bsp.a(alt_find_file.o)
 .debug_pubnames
                0x000021db       0x21 ../transmitter_test_bsp/\libucosii_bsp.a(alt_get_fd.o)
 .debug_pubnames
                0x000021fc       0x27 ../transmitter_test_bsp/\libucosii_bsp.a(alt_icache_flush.o)
 .debug_pubnames
                0x00002223       0x2a c:/altera/12.1sp1/nios2eds/bin/gnu/h-i686-mingw32/bin/../lib/gcc/nios2-elf/4.1.2/../../../../nios2-elf/lib\libc.a(lib_a-atexit.o)
 .debug_pubnames
                0x0000224d       0x1b c:/altera/12.1sp1/nios2eds/bin/gnu/h-i686-mingw32/bin/../lib/gcc/nios2-elf/4.1.2/../../../../nios2-elf/lib\libc.a(lib_a-exit.o)
 .debug_pubnames
                0x00002268       0x1d c:/altera/12.1sp1/nios2eds/bin/gnu/h-i686-mingw32/bin/../lib/gcc/nios2-elf/4.1.2/../../../../nios2-elf/lib\libc.a(lib_a-memcmp.o)
 .debug_pubnames
                0x00002285       0x2a c:/altera/12.1sp1/nios2eds/bin/gnu/h-i686-mingw32/bin/../lib/gcc/nios2-elf/4.1.2/../../../../nios2-elf/lib\libc.a(lib_a-__atexit.o)
 .debug_pubnames
                0x000022af       0x27 c:/altera/12.1sp1/nios2eds/bin/gnu/h-i686-mingw32/bin/../lib/gcc/nios2-elf/4.1.2/../../../../nios2-elf/lib\libc.a(lib_a-__call_atexit.o)
 .debug_pubnames
                0x000022d6       0x48 c:/altera/12.1sp1/nios2eds/bin/gnu/h-i686-mingw32/bin/../lib/gcc/nios2-elf/4.1.2\libgcc.a(lib2-divmod.o)
 .debug_pubnames
                0x0000231e       0x1c ../transmitter_test_bsp/\libucosii_bsp.a(alt_exit.o)

.debug_info     0x00000000    0x2b9fb
 *(.debug_info .gnu.linkonce.wi.*)
 .debug_info    0x00000000       0x84 ../transmitter_test_bsp//obj/HAL/src/crt0.o
 .debug_info    0x00000084      0x98d obj/default/transmitterInterface.o
 .debug_info    0x00000a11      0x7bb obj/default/transmitter_test.o
 .debug_info    0x000011cc      0x8df c:/altera/12.1sp1/nios2eds/bin/gnu/h-i686-mingw32/bin/../lib/gcc/nios2-elf/4.1.2/../../../../nios2-elf/lib\libstdc++.a(class_type_info.o)
 .debug_info    0x00001aab      0x44c c:/altera/12.1sp1/nios2eds/bin/gnu/h-i686-mingw32/bin/../lib/gcc/nios2-elf/4.1.2/../../../../nios2-elf/lib\libstdc++.a(del_op.o)
 .debug_info    0x00001ef7      0x9dd c:/altera/12.1sp1/nios2eds/bin/gnu/h-i686-mingw32/bin/../lib/gcc/nios2-elf/4.1.2/../../../../nios2-elf/lib\libstdc++.a(si_class_type_info.o)
 .debug_info    0x000028d4      0x77c c:/altera/12.1sp1/nios2eds/bin/gnu/h-i686-mingw32/bin/../lib/gcc/nios2-elf/4.1.2/../../../../nios2-elf/lib\libstdc++.a(tinfo.o)
 .debug_info    0x00003050      0x96e c:/altera/12.1sp1/nios2eds/bin/gnu/h-i686-mingw32/bin/../lib/gcc/nios2-elf/4.1.2/../../../../nios2-elf/lib\libc.a(lib_a-malloc.o)
 .debug_info    0x000039be      0xcd0 c:/altera/12.1sp1/nios2eds/bin/gnu/h-i686-mingw32/bin/../lib/gcc/nios2-elf/4.1.2/../../../../nios2-elf/lib\libc.a(lib_a-mallocr.o)
 .debug_info    0x0000468e      0xa25 c:/altera/12.1sp1/nios2eds/bin/gnu/h-i686-mingw32/bin/../lib/gcc/nios2-elf/4.1.2/../../../../nios2-elf/lib\libc.a(lib_a-puts.o)
 .debug_info    0x000050b3      0x962 c:/altera/12.1sp1/nios2eds/bin/gnu/h-i686-mingw32/bin/../lib/gcc/nios2-elf/4.1.2/../../../../nios2-elf/lib\libc.a(lib_a-sbrkr.o)
 .debug_info    0x00005a15       0xdb c:/altera/12.1sp1/nios2eds/bin/gnu/h-i686-mingw32/bin/../lib/gcc/nios2-elf/4.1.2/../../../../nios2-elf/lib\libc.a(lib_a-strlen.o)
 .debug_info    0x00005af0      0xbc9 c:/altera/12.1sp1/nios2eds/bin/gnu/h-i686-mingw32/bin/../lib/gcc/nios2-elf/4.1.2/../../../../nios2-elf/lib\libc.a(lib_a-freer.o)
 .debug_info    0x000066b9      0xa88 c:/altera/12.1sp1/nios2eds/bin/gnu/h-i686-mingw32/bin/../lib/gcc/nios2-elf/4.1.2/../../../../nios2-elf/lib\libc.a(lib_a-fvwrite.o)
 .debug_info    0x00007141      0x93d c:/altera/12.1sp1/nios2eds/bin/gnu/h-i686-mingw32/bin/../lib/gcc/nios2-elf/4.1.2/../../../../nios2-elf/lib\libc.a(lib_a-impure.o)
 .debug_info    0x00007a7e       0x8c c:/altera/12.1sp1/nios2eds/bin/gnu/h-i686-mingw32/bin/../lib/gcc/nios2-elf/4.1.2/../../../../nios2-elf/lib\libc.a(lib_a-int_errno.o)
 .debug_info    0x00007b0a      0x138 c:/altera/12.1sp1/nios2eds/bin/gnu/h-i686-mingw32/bin/../lib/gcc/nios2-elf/4.1.2/../../../../nios2-elf/lib\libc.a(lib_a-memchr.o)
 .debug_info    0x00007c42      0x106 c:/altera/12.1sp1/nios2eds/bin/gnu/h-i686-mingw32/bin/../lib/gcc/nios2-elf/4.1.2/../../../../nios2-elf/lib\libc.a(lib_a-memcpy.o)
 .debug_info    0x00007d48      0x13e c:/altera/12.1sp1/nios2eds/bin/gnu/h-i686-mingw32/bin/../lib/gcc/nios2-elf/4.1.2/../../../../nios2-elf/lib\libc.a(lib_a-memmove.o)
 .debug_info    0x00007e86      0xbd7 c:/altera/12.1sp1/nios2eds/bin/gnu/h-i686-mingw32/bin/../lib/gcc/nios2-elf/4.1.2/../../../../nios2-elf/lib\libc.a(lib_a-reallocr.o)
 .debug_info    0x00008a5d      0x95d c:/altera/12.1sp1/nios2eds/bin/gnu/h-i686-mingw32/bin/../lib/gcc/nios2-elf/4.1.2/../../../../nios2-elf/lib\libc.a(lib_a-wsetup.o)
 .debug_info    0x000093ba      0x9fe c:/altera/12.1sp1/nios2eds/bin/gnu/h-i686-mingw32/bin/../lib/gcc/nios2-elf/4.1.2/../../../../nios2-elf/lib\libc.a(lib_a-fflush.o)
 .debug_info    0x00009db8      0xb72 c:/altera/12.1sp1/nios2eds/bin/gnu/h-i686-mingw32/bin/../lib/gcc/nios2-elf/4.1.2/../../../../nios2-elf/lib\libc.a(lib_a-findfp.o)
 .debug_info    0x0000a92a      0xaed c:/altera/12.1sp1/nios2eds/bin/gnu/h-i686-mingw32/bin/../lib/gcc/nios2-elf/4.1.2/../../../../nios2-elf/lib\libc.a(lib_a-fwalk.o)
 .debug_info    0x0000b417      0xb1a c:/altera/12.1sp1/nios2eds/bin/gnu/h-i686-mingw32/bin/../lib/gcc/nios2-elf/4.1.2/../../../../nios2-elf/lib\libc.a(lib_a-makebuf.o)
 .debug_info    0x0000bf31      0x113 c:/altera/12.1sp1/nios2eds/bin/gnu/h-i686-mingw32/bin/../lib/gcc/nios2-elf/4.1.2/../../../../nios2-elf/lib\libc.a(lib_a-memset.o)
 .debug_info    0x0000c044      0xaac c:/altera/12.1sp1/nios2eds/bin/gnu/h-i686-mingw32/bin/../lib/gcc/nios2-elf/4.1.2/../../../../nios2-elf/lib\libc.a(lib_a-stdio.o)
 .debug_info    0x0000caf0      0x993 c:/altera/12.1sp1/nios2eds/bin/gnu/h-i686-mingw32/bin/../lib/gcc/nios2-elf/4.1.2/../../../../nios2-elf/lib\libc.a(lib_a-writer.o)
 .debug_info    0x0000d483      0x958 c:/altera/12.1sp1/nios2eds/bin/gnu/h-i686-mingw32/bin/../lib/gcc/nios2-elf/4.1.2/../../../../nios2-elf/lib\libc.a(lib_a-closer.o)
 .debug_info    0x0000dddb      0x994 c:/altera/12.1sp1/nios2eds/bin/gnu/h-i686-mingw32/bin/../lib/gcc/nios2-elf/4.1.2/../../../../nios2-elf/lib\libc.a(lib_a-fclose.o)
 .debug_info    0x0000e76f      0xafc c:/altera/12.1sp1/nios2eds/bin/gnu/h-i686-mingw32/bin/../lib/gcc/nios2-elf/4.1.2/../../../../nios2-elf/lib\libc.a(lib_a-fstatr.o)
 .debug_info    0x0000f26b      0x958 c:/altera/12.1sp1/nios2eds/bin/gnu/h-i686-mingw32/bin/../lib/gcc/nios2-elf/4.1.2/../../../../nios2-elf/lib\libc.a(lib_a-isattyr.o)
 .debug_info    0x0000fbc3      0x981 c:/altera/12.1sp1/nios2eds/bin/gnu/h-i686-mingw32/bin/../lib/gcc/nios2-elf/4.1.2/../../../../nios2-elf/lib\libc.a(lib_a-lseekr.o)
 .debug_info    0x00010544      0x98c c:/altera/12.1sp1/nios2eds/bin/gnu/h-i686-mingw32/bin/../lib/gcc/nios2-elf/4.1.2/../../../../nios2-elf/lib\libc.a(lib_a-readr.o)
 .debug_info    0x00010ed0      0x4c4 ../transmitter_test_bsp/\libucosii_bsp.a(alt_close.o)
 .debug_info    0x00011394      0x7e6 ../transmitter_test_bsp/\libucosii_bsp.a(alt_dev.o)
 .debug_info    0x00011b7a      0x16d ../transmitter_test_bsp/\libucosii_bsp.a(alt_errno.o)
 .debug_info    0x00011ce7      0x6bd ../transmitter_test_bsp/\libucosii_bsp.a(alt_fstat.o)
 .debug_info    0x000123a4      0x6c3 ../transmitter_test_bsp/\libucosii_bsp.a(alt_isatty.o)
 .debug_info    0x00012a67      0x296 ../transmitter_test_bsp/\libucosii_bsp.a(alt_load.o)
 .debug_info    0x00012cfd      0x4f7 ../transmitter_test_bsp/\libucosii_bsp.a(alt_lseek.o)
 .debug_info    0x000131f4      0x3e6 ../transmitter_test_bsp/\libucosii_bsp.a(alt_main.o)
 .debug_info    0x000135da      0x6e7 ../transmitter_test_bsp/\libucosii_bsp.a(alt_read.o)
 .debug_info    0x00013cc1      0x458 ../transmitter_test_bsp/\libucosii_bsp.a(alt_release_fd.o)
 .debug_info    0x00014119      0x2c0 ../transmitter_test_bsp/\libucosii_bsp.a(alt_sbrk.o)
 .debug_info    0x000143d9      0x6f0 ../transmitter_test_bsp/\libucosii_bsp.a(alt_write.o)
 .debug_info    0x00014ac9     0x11dc ../transmitter_test_bsp/\libucosii_bsp.a(alt_env_lock.o)
 .debug_info    0x00015ca5     0x1338 ../transmitter_test_bsp/\libucosii_bsp.a(alt_malloc_lock.o)
 .debug_info    0x00016fdd     0x1bf2 ../transmitter_test_bsp/\libucosii_bsp.a(os_core.o)
 .debug_info    0x00018bcf     0x1137 ../transmitter_test_bsp/\libucosii_bsp.a(os_dbg.o)
 .debug_info    0x00019d06     0x124d ../transmitter_test_bsp/\libucosii_bsp.a(os_flag.o)
 .debug_info    0x0001af53      0x817 ../transmitter_test_bsp/\libucosii_bsp.a(os_mem.o)
 .debug_info    0x0001b76a     0x1087 ../transmitter_test_bsp/\libucosii_bsp.a(os_q.o)
 .debug_info    0x0001c7f1      0xcef ../transmitter_test_bsp/\libucosii_bsp.a(os_sem.o)
 .debug_info    0x0001d4e0     0x1365 ../transmitter_test_bsp/\libucosii_bsp.a(os_task.o)
 .debug_info    0x0001e845      0x9e9 ../transmitter_test_bsp/\libucosii_bsp.a(os_time.o)
 .debug_info    0x0001f22e      0xd86 ../transmitter_test_bsp/\libucosii_bsp.a(alt_sys_init.o)
 .debug_info    0x0001ffb4      0xbb2 ../transmitter_test_bsp/\libucosii_bsp.a(altera_avalon_epcs_flash_controller.o)
 .debug_info    0x00020b66      0x9db ../transmitter_test_bsp/\libucosii_bsp.a(altera_avalon_jtag_uart_fd.o)
 .debug_info    0x00021541      0x959 ../transmitter_test_bsp/\libucosii_bsp.a(altera_avalon_jtag_uart_init.o)
 .debug_info    0x00021e9a      0x645 ../transmitter_test_bsp/\libucosii_bsp.a(altera_avalon_jtag_uart_ioctl.o)
 .debug_info    0x000224df      0x801 ../transmitter_test_bsp/\libucosii_bsp.a(altera_avalon_jtag_uart_read.o)
 .debug_info    0x00022ce0      0x7f8 ../transmitter_test_bsp/\libucosii_bsp.a(altera_avalon_jtag_uart_write.o)
 .debug_info    0x000234d8      0x394 ../transmitter_test_bsp/\libucosii_bsp.a(altera_avalon_timer_sc.o)
 .debug_info    0x0002386c      0x645 ../transmitter_test_bsp/\libucosii_bsp.a(epcs_commands.o)
 .debug_info    0x00023eb1      0x44b ../transmitter_test_bsp/\libucosii_bsp.a(alt_alarm_start.o)
 .debug_info    0x000242fc      0x178 ../transmitter_test_bsp/\libucosii_bsp.a(alt_dcache_flush_all.o)
 .debug_info    0x00024474      0x2c0 ../transmitter_test_bsp/\libucosii_bsp.a(alt_dev_llist_insert.o)
 .debug_info    0x00024734      0x118 ../transmitter_test_bsp/\libucosii_bsp.a(alt_do_ctors.o)
 .debug_info    0x0002484c      0x117 ../transmitter_test_bsp/\libucosii_bsp.a(alt_do_dtors.o)
 .debug_info    0x00024963      0x5f6 ../transmitter_test_bsp/\libucosii_bsp.a(alt_flash_dev.o)
 .debug_info    0x00024f59      0x165 ../transmitter_test_bsp/\libucosii_bsp.a(alt_icache_flush_all.o)
 .debug_info    0x000250be      0x49c ../transmitter_test_bsp/\libucosii_bsp.a(alt_iic.o)
 .debug_info    0x0002555a      0x31d ../transmitter_test_bsp/\libucosii_bsp.a(alt_iic_isr_register.o)
 .debug_info    0x00025877      0x6f2 ../transmitter_test_bsp/\libucosii_bsp.a(alt_io_redirect.o)
 .debug_info    0x00025f69       0x8d ../transmitter_test_bsp/\libucosii_bsp.a(alt_irq_entry.o)
 .debug_info    0x00025ff6      0x2c3 ../transmitter_test_bsp/\libucosii_bsp.a(alt_irq_handler.o)
 .debug_info    0x000262b9      0x170 ../transmitter_test_bsp/\libucosii_bsp.a(alt_irq_vars.o)
 .debug_info    0x00026429      0x573 ../transmitter_test_bsp/\libucosii_bsp.a(alt_open.o)
 .debug_info    0x0002699c      0x41a ../transmitter_test_bsp/\libucosii_bsp.a(alt_tick.o)
 .debug_info    0x00026db6      0x16c ../transmitter_test_bsp/\libucosii_bsp.a(altera_nios2_qsys_irq.o)
 .debug_info    0x00026f22       0x8c ../transmitter_test_bsp/\libucosii_bsp.a(os_cpu_a.o)
 .debug_info    0x00026fae     0x12dc ../transmitter_test_bsp/\libucosii_bsp.a(os_cpu_c.o)
 .debug_info    0x0002828a      0x2b2 ../transmitter_test_bsp/\libucosii_bsp.a(altera_avalon_spi.o)
 .debug_info    0x0002853c       0x93 ../transmitter_test_bsp/\libucosii_bsp.a(alt_exception_entry.o)
 .debug_info    0x000285cf      0x475 ../transmitter_test_bsp/\libucosii_bsp.a(alt_find_dev.o)
 .debug_info    0x00028a44      0x47c ../transmitter_test_bsp/\libucosii_bsp.a(alt_find_file.o)
 .debug_info    0x00028ec0      0x60e ../transmitter_test_bsp/\libucosii_bsp.a(alt_get_fd.o)
 .debug_info    0x000294ce      0x1ad ../transmitter_test_bsp/\libucosii_bsp.a(alt_icache_flush.o)
 .debug_info    0x0002967b      0x181 c:/altera/12.1sp1/nios2eds/bin/gnu/h-i686-mingw32/bin/../lib/gcc/nios2-elf/4.1.2/../../../../nios2-elf/lib\libc.a(lib_a-atexit.o)
 .debug_info    0x000297fc      0x93f c:/altera/12.1sp1/nios2eds/bin/gnu/h-i686-mingw32/bin/../lib/gcc/nios2-elf/4.1.2/../../../../nios2-elf/lib\libc.a(lib_a-exit.o)
 .debug_info    0x0002a13b      0x115 c:/altera/12.1sp1/nios2eds/bin/gnu/h-i686-mingw32/bin/../lib/gcc/nios2-elf/4.1.2/../../../../nios2-elf/lib\libc.a(lib_a-memcmp.o)
 .debug_info    0x0002a250      0x99c c:/altera/12.1sp1/nios2eds/bin/gnu/h-i686-mingw32/bin/../lib/gcc/nios2-elf/4.1.2/../../../../nios2-elf/lib\libc.a(lib_a-__atexit.o)
 .debug_info    0x0002abec      0x9e2 c:/altera/12.1sp1/nios2eds/bin/gnu/h-i686-mingw32/bin/../lib/gcc/nios2-elf/4.1.2/../../../../nios2-elf/lib\libc.a(lib_a-__call_atexit.o)
 .debug_info    0x0002b5ce      0x21c c:/altera/12.1sp1/nios2eds/bin/gnu/h-i686-mingw32/bin/../lib/gcc/nios2-elf/4.1.2\libgcc.a(lib2-divmod.o)
 .debug_info    0x0002b7ea      0x211 ../transmitter_test_bsp/\libucosii_bsp.a(alt_exit.o)

.debug_abbrev   0x00000000     0x7eaa
 *(.debug_abbrev)
 .debug_abbrev  0x00000000       0x12 ../transmitter_test_bsp//obj/HAL/src/crt0.o
 .debug_abbrev  0x00000012      0x216 obj/default/transmitterInterface.o
 .debug_abbrev  0x00000228      0x200 obj/default/transmitter_test.o
 .debug_abbrev  0x00000428      0x3cb c:/altera/12.1sp1/nios2eds/bin/gnu/h-i686-mingw32/bin/../lib/gcc/nios2-elf/4.1.2/../../../../nios2-elf/lib\libstdc++.a(class_type_info.o)
 .debug_abbrev  0x000007f3      0x13d c:/altera/12.1sp1/nios2eds/bin/gnu/h-i686-mingw32/bin/../lib/gcc/nios2-elf/4.1.2/../../../../nios2-elf/lib\libstdc++.a(del_op.o)
 .debug_abbrev  0x00000930      0x3e2 c:/altera/12.1sp1/nios2eds/bin/gnu/h-i686-mingw32/bin/../lib/gcc/nios2-elf/4.1.2/../../../../nios2-elf/lib\libstdc++.a(si_class_type_info.o)
 .debug_abbrev  0x00000d12      0x34f c:/altera/12.1sp1/nios2eds/bin/gnu/h-i686-mingw32/bin/../lib/gcc/nios2-elf/4.1.2/../../../../nios2-elf/lib\libstdc++.a(tinfo.o)
 .debug_abbrev  0x00001061      0x187 c:/altera/12.1sp1/nios2eds/bin/gnu/h-i686-mingw32/bin/../lib/gcc/nios2-elf/4.1.2/../../../../nios2-elf/lib\libc.a(lib_a-malloc.o)
 .debug_abbrev  0x000011e8      0x216 c:/altera/12.1sp1/nios2eds/bin/gnu/h-i686-mingw32/bin/../lib/gcc/nios2-elf/4.1.2/../../../../nios2-elf/lib\libc.a(lib_a-mallocr.o)
 .debug_abbrev  0x000013fe      0x1ac c:/altera/12.1sp1/nios2eds/bin/gnu/h-i686-mingw32/bin/../lib/gcc/nios2-elf/4.1.2/../../../../nios2-elf/lib\libc.a(lib_a-puts.o)
 .debug_abbrev  0x000015aa      0x18c c:/altera/12.1sp1/nios2eds/bin/gnu/h-i686-mingw32/bin/../lib/gcc/nios2-elf/4.1.2/../../../../nios2-elf/lib\libc.a(lib_a-sbrkr.o)
 .debug_abbrev  0x00001736       0x8b c:/altera/12.1sp1/nios2eds/bin/gnu/h-i686-mingw32/bin/../lib/gcc/nios2-elf/4.1.2/../../../../nios2-elf/lib\libc.a(lib_a-strlen.o)
 .debug_abbrev  0x000017c1      0x1d9 c:/altera/12.1sp1/nios2eds/bin/gnu/h-i686-mingw32/bin/../lib/gcc/nios2-elf/4.1.2/../../../../nios2-elf/lib\libc.a(lib_a-freer.o)
 .debug_abbrev  0x0000199a      0x1a3 c:/altera/12.1sp1/nios2eds/bin/gnu/h-i686-mingw32/bin/../lib/gcc/nios2-elf/4.1.2/../../../../nios2-elf/lib\libc.a(lib_a-fvwrite.o)
 .debug_abbrev  0x00001b3d      0x157 c:/altera/12.1sp1/nios2eds/bin/gnu/h-i686-mingw32/bin/../lib/gcc/nios2-elf/4.1.2/../../../../nios2-elf/lib\libc.a(lib_a-impure.o)
 .debug_abbrev  0x00001c94       0x3b c:/altera/12.1sp1/nios2eds/bin/gnu/h-i686-mingw32/bin/../lib/gcc/nios2-elf/4.1.2/../../../../nios2-elf/lib\libc.a(lib_a-int_errno.o)
 .debug_abbrev  0x00001ccf       0xb5 c:/altera/12.1sp1/nios2eds/bin/gnu/h-i686-mingw32/bin/../lib/gcc/nios2-elf/4.1.2/../../../../nios2-elf/lib\libc.a(lib_a-memchr.o)
 .debug_abbrev  0x00001d84       0xb5 c:/altera/12.1sp1/nios2eds/bin/gnu/h-i686-mingw32/bin/../lib/gcc/nios2-elf/4.1.2/../../../../nios2-elf/lib\libc.a(lib_a-memcpy.o)
 .debug_abbrev  0x00001e39       0xb5 c:/altera/12.1sp1/nios2eds/bin/gnu/h-i686-mingw32/bin/../lib/gcc/nios2-elf/4.1.2/../../../../nios2-elf/lib\libc.a(lib_a-memmove.o)
 .debug_abbrev  0x00001eee      0x1c3 c:/altera/12.1sp1/nios2eds/bin/gnu/h-i686-mingw32/bin/../lib/gcc/nios2-elf/4.1.2/../../../../nios2-elf/lib\libc.a(lib_a-reallocr.o)
 .debug_abbrev  0x000020b1      0x170 c:/altera/12.1sp1/nios2eds/bin/gnu/h-i686-mingw32/bin/../lib/gcc/nios2-elf/4.1.2/../../../../nios2-elf/lib\libc.a(lib_a-wsetup.o)
 .debug_abbrev  0x00002221      0x1c6 c:/altera/12.1sp1/nios2eds/bin/gnu/h-i686-mingw32/bin/../lib/gcc/nios2-elf/4.1.2/../../../../nios2-elf/lib\libc.a(lib_a-fflush.o)
 .debug_abbrev  0x000023e7      0x24c c:/altera/12.1sp1/nios2eds/bin/gnu/h-i686-mingw32/bin/../lib/gcc/nios2-elf/4.1.2/../../../../nios2-elf/lib\libc.a(lib_a-findfp.o)
 .debug_abbrev  0x00002633      0x1e3 c:/altera/12.1sp1/nios2eds/bin/gnu/h-i686-mingw32/bin/../lib/gcc/nios2-elf/4.1.2/../../../../nios2-elf/lib\libc.a(lib_a-fwalk.o)
 .debug_abbrev  0x00002816      0x197 c:/altera/12.1sp1/nios2eds/bin/gnu/h-i686-mingw32/bin/../lib/gcc/nios2-elf/4.1.2/../../../../nios2-elf/lib\libc.a(lib_a-makebuf.o)
 .debug_abbrev  0x000029ad       0xb8 c:/altera/12.1sp1/nios2eds/bin/gnu/h-i686-mingw32/bin/../lib/gcc/nios2-elf/4.1.2/../../../../nios2-elf/lib\libc.a(lib_a-memset.o)
 .debug_abbrev  0x00002a65      0x1c9 c:/altera/12.1sp1/nios2eds/bin/gnu/h-i686-mingw32/bin/../lib/gcc/nios2-elf/4.1.2/../../../../nios2-elf/lib\libc.a(lib_a-stdio.o)
 .debug_abbrev  0x00002c2e      0x184 c:/altera/12.1sp1/nios2eds/bin/gnu/h-i686-mingw32/bin/../lib/gcc/nios2-elf/4.1.2/../../../../nios2-elf/lib\libc.a(lib_a-writer.o)
 .debug_abbrev  0x00002db2      0x17f c:/altera/12.1sp1/nios2eds/bin/gnu/h-i686-mingw32/bin/../lib/gcc/nios2-elf/4.1.2/../../../../nios2-elf/lib\libc.a(lib_a-closer.o)
 .debug_abbrev  0x00002f31      0x1a7 c:/altera/12.1sp1/nios2eds/bin/gnu/h-i686-mingw32/bin/../lib/gcc/nios2-elf/4.1.2/../../../../nios2-elf/lib\libc.a(lib_a-fclose.o)
 .debug_abbrev  0x000030d8      0x18e c:/altera/12.1sp1/nios2eds/bin/gnu/h-i686-mingw32/bin/../lib/gcc/nios2-elf/4.1.2/../../../../nios2-elf/lib\libc.a(lib_a-fstatr.o)
 .debug_abbrev  0x00003266      0x17f c:/altera/12.1sp1/nios2eds/bin/gnu/h-i686-mingw32/bin/../lib/gcc/nios2-elf/4.1.2/../../../../nios2-elf/lib\libc.a(lib_a-isattyr.o)
 .debug_abbrev  0x000033e5      0x18e c:/altera/12.1sp1/nios2eds/bin/gnu/h-i686-mingw32/bin/../lib/gcc/nios2-elf/4.1.2/../../../../nios2-elf/lib\libc.a(lib_a-lseekr.o)
 .debug_abbrev  0x00003573      0x17f c:/altera/12.1sp1/nios2eds/bin/gnu/h-i686-mingw32/bin/../lib/gcc/nios2-elf/4.1.2/../../../../nios2-elf/lib\libc.a(lib_a-readr.o)
 .debug_abbrev  0x000036f2      0x102 ../transmitter_test_bsp/\libucosii_bsp.a(alt_close.o)
 .debug_abbrev  0x000037f4      0x10a ../transmitter_test_bsp/\libucosii_bsp.a(alt_dev.o)
 .debug_abbrev  0x000038fe       0x5e ../transmitter_test_bsp/\libucosii_bsp.a(alt_errno.o)
 .debug_abbrev  0x0000395c      0x102 ../transmitter_test_bsp/\libucosii_bsp.a(alt_fstat.o)
 .debug_abbrev  0x00003a5e      0x102 ../transmitter_test_bsp/\libucosii_bsp.a(alt_isatty.o)
 .debug_abbrev  0x00003b60       0x88 ../transmitter_test_bsp/\libucosii_bsp.a(alt_load.o)
 .debug_abbrev  0x00003be8      0x102 ../transmitter_test_bsp/\libucosii_bsp.a(alt_lseek.o)
 .debug_abbrev  0x00003cea      0x120 ../transmitter_test_bsp/\libucosii_bsp.a(alt_main.o)
 .debug_abbrev  0x00003e0a      0x102 ../transmitter_test_bsp/\libucosii_bsp.a(alt_read.o)
 .debug_abbrev  0x00003f0c       0xd3 ../transmitter_test_bsp/\libucosii_bsp.a(alt_release_fd.o)
 .debug_abbrev  0x00003fdf      0x115 ../transmitter_test_bsp/\libucosii_bsp.a(alt_sbrk.o)
 .debug_abbrev  0x000040f4      0x107 ../transmitter_test_bsp/\libucosii_bsp.a(alt_write.o)
 .debug_abbrev  0x000041fb      0x1b3 ../transmitter_test_bsp/\libucosii_bsp.a(alt_env_lock.o)
 .debug_abbrev  0x000043ae      0x234 ../transmitter_test_bsp/\libucosii_bsp.a(alt_malloc_lock.o)
 .debug_abbrev  0x000045e2      0x2aa ../transmitter_test_bsp/\libucosii_bsp.a(os_core.o)
 .debug_abbrev  0x0000488c      0x114 ../transmitter_test_bsp/\libucosii_bsp.a(os_dbg.o)
 .debug_abbrev  0x000049a0      0x21b ../transmitter_test_bsp/\libucosii_bsp.a(os_flag.o)
 .debug_abbrev  0x00004bbb      0x235 ../transmitter_test_bsp/\libucosii_bsp.a(os_mem.o)
 .debug_abbrev  0x00004df0      0x20d ../transmitter_test_bsp/\libucosii_bsp.a(os_q.o)
 .debug_abbrev  0x00004ffd      0x20d ../transmitter_test_bsp/\libucosii_bsp.a(os_sem.o)
 .debug_abbrev  0x0000520a      0x20e ../transmitter_test_bsp/\libucosii_bsp.a(os_task.o)
 .debug_abbrev  0x00005418      0x1de ../transmitter_test_bsp/\libucosii_bsp.a(os_time.o)
 .debug_abbrev  0x000055f6      0x1a3 ../transmitter_test_bsp/\libucosii_bsp.a(alt_sys_init.o)
 .debug_abbrev  0x00005799      0x1bf ../transmitter_test_bsp/\libucosii_bsp.a(altera_avalon_epcs_flash_controller.o)
 .debug_abbrev  0x00005958      0x13c ../transmitter_test_bsp/\libucosii_bsp.a(altera_avalon_jtag_uart_fd.o)
 .debug_abbrev  0x00005a94      0x21e ../transmitter_test_bsp/\libucosii_bsp.a(altera_avalon_jtag_uart_init.o)
 .debug_abbrev  0x00005cb2      0x135 ../transmitter_test_bsp/\libucosii_bsp.a(altera_avalon_jtag_uart_ioctl.o)
 .debug_abbrev  0x00005de7      0x1ee ../transmitter_test_bsp/\libucosii_bsp.a(altera_avalon_jtag_uart_read.o)
 .debug_abbrev  0x00005fd5      0x1ea ../transmitter_test_bsp/\libucosii_bsp.a(altera_avalon_jtag_uart_write.o)
 .debug_abbrev  0x000061bf      0x137 ../transmitter_test_bsp/\libucosii_bsp.a(altera_avalon_timer_sc.o)
 .debug_abbrev  0x000062f6      0x145 ../transmitter_test_bsp/\libucosii_bsp.a(epcs_commands.o)
 .debug_abbrev  0x0000643b      0x172 ../transmitter_test_bsp/\libucosii_bsp.a(alt_alarm_start.o)
 .debug_abbrev  0x000065ad       0x57 ../transmitter_test_bsp/\libucosii_bsp.a(alt_dcache_flush_all.o)
 .debug_abbrev  0x00006604       0xf6 ../transmitter_test_bsp/\libucosii_bsp.a(alt_dev_llist_insert.o)
 .debug_abbrev  0x000066fa       0x76 ../transmitter_test_bsp/\libucosii_bsp.a(alt_do_ctors.o)
 .debug_abbrev  0x00006770       0x76 ../transmitter_test_bsp/\libucosii_bsp.a(alt_do_dtors.o)
 .debug_abbrev  0x000067e6      0x128 ../transmitter_test_bsp/\libucosii_bsp.a(alt_flash_dev.o)
 .debug_abbrev  0x0000690e       0x3f ../transmitter_test_bsp/\libucosii_bsp.a(alt_icache_flush_all.o)
 .debug_abbrev  0x0000694d      0x134 ../transmitter_test_bsp/\libucosii_bsp.a(alt_iic.o)
 .debug_abbrev  0x00006a81      0x14e ../transmitter_test_bsp/\libucosii_bsp.a(alt_iic_isr_register.o)
 .debug_abbrev  0x00006bcf       0xf7 ../transmitter_test_bsp/\libucosii_bsp.a(alt_io_redirect.o)
 .debug_abbrev  0x00006cc6       0x12 ../transmitter_test_bsp/\libucosii_bsp.a(alt_irq_entry.o)
 .debug_abbrev  0x00006cd8      0x124 ../transmitter_test_bsp/\libucosii_bsp.a(alt_irq_handler.o)
 .debug_abbrev  0x00006dfc       0x44 ../transmitter_test_bsp/\libucosii_bsp.a(alt_irq_vars.o)
 .debug_abbrev  0x00006e40      0x119 ../transmitter_test_bsp/\libucosii_bsp.a(alt_open.o)
 .debug_abbrev  0x00006f59      0x150 ../transmitter_test_bsp/\libucosii_bsp.a(alt_tick.o)
 .debug_abbrev  0x000070a9       0x3f ../transmitter_test_bsp/\libucosii_bsp.a(altera_nios2_qsys_irq.o)
 .debug_abbrev  0x000070e8       0x14 ../transmitter_test_bsp/\libucosii_bsp.a(os_cpu_a.o)
 .debug_abbrev  0x000070fc      0x1d0 ../transmitter_test_bsp/\libucosii_bsp.a(os_cpu_c.o)
 .debug_abbrev  0x000072cc       0x7c ../transmitter_test_bsp/\libucosii_bsp.a(altera_avalon_spi.o)
 .debug_abbrev  0x00007348       0x12 ../transmitter_test_bsp/\libucosii_bsp.a(alt_exception_entry.o)
 .debug_abbrev  0x0000735a       0xd6 ../transmitter_test_bsp/\libucosii_bsp.a(alt_find_dev.o)
 .debug_abbrev  0x00007430       0xd6 ../transmitter_test_bsp/\libucosii_bsp.a(alt_find_file.o)
 .debug_abbrev  0x00007506      0x173 ../transmitter_test_bsp/\libucosii_bsp.a(alt_get_fd.o)
 .debug_abbrev  0x00007679       0x7a ../transmitter_test_bsp/\libucosii_bsp.a(alt_icache_flush.o)
 .debug_abbrev  0x000076f3       0xb7 c:/altera/12.1sp1/nios2eds/bin/gnu/h-i686-mingw32/bin/../lib/gcc/nios2-elf/4.1.2/../../../../nios2-elf/lib\libc.a(lib_a-atexit.o)
 .debug_abbrev  0x000077aa      0x16e c:/altera/12.1sp1/nios2eds/bin/gnu/h-i686-mingw32/bin/../lib/gcc/nios2-elf/4.1.2/../../../../nios2-elf/lib\libc.a(lib_a-exit.o)
 .debug_abbrev  0x00007918       0x7c c:/altera/12.1sp1/nios2eds/bin/gnu/h-i686-mingw32/bin/../lib/gcc/nios2-elf/4.1.2/../../../../nios2-elf/lib\libc.a(lib_a-memcmp.o)
 .debug_abbrev  0x00007994      0x1ae c:/altera/12.1sp1/nios2eds/bin/gnu/h-i686-mingw32/bin/../lib/gcc/nios2-elf/4.1.2/../../../../nios2-elf/lib\libc.a(lib_a-__atexit.o)
 .debug_abbrev  0x00007b42      0x1de c:/altera/12.1sp1/nios2eds/bin/gnu/h-i686-mingw32/bin/../lib/gcc/nios2-elf/4.1.2/../../../../nios2-elf/lib\libc.a(lib_a-__call_atexit.o)
 .debug_abbrev  0x00007d20       0xe0 c:/altera/12.1sp1/nios2eds/bin/gnu/h-i686-mingw32/bin/../lib/gcc/nios2-elf/4.1.2\libgcc.a(lib2-divmod.o)
 .debug_abbrev  0x00007e00       0xaa ../transmitter_test_bsp/\libucosii_bsp.a(alt_exit.o)

.debug_line     0x00000000    0x167ea
 *(.debug_line)
 .debug_line    0x00000000       0x72 ../transmitter_test_bsp//obj/HAL/src/crt0.o
 .debug_line    0x00000072      0x512 obj/default/transmitterInterface.o
 .debug_line    0x00000584      0x3c6 obj/default/transmitter_test.o
 .debug_line    0x0000094a      0x42d c:/altera/12.1sp1/nios2eds/bin/gnu/h-i686-mingw32/bin/../lib/gcc/nios2-elf/4.1.2/../../../../nios2-elf/lib\libstdc++.a(class_type_info.o)
 .debug_line    0x00000d77      0x35d c:/altera/12.1sp1/nios2eds/bin/gnu/h-i686-mingw32/bin/../lib/gcc/nios2-elf/4.1.2/../../../../nios2-elf/lib\libstdc++.a(del_op.o)
 .debug_line    0x000010d4      0x3bd c:/altera/12.1sp1/nios2eds/bin/gnu/h-i686-mingw32/bin/../lib/gcc/nios2-elf/4.1.2/../../../../nios2-elf/lib\libstdc++.a(si_class_type_info.o)
 .debug_line    0x00001491      0x2f7 c:/altera/12.1sp1/nios2eds/bin/gnu/h-i686-mingw32/bin/../lib/gcc/nios2-elf/4.1.2/../../../../nios2-elf/lib\libstdc++.a(tinfo.o)
 .debug_line    0x00001788      0x24b c:/altera/12.1sp1/nios2eds/bin/gnu/h-i686-mingw32/bin/../lib/gcc/nios2-elf/4.1.2/../../../../nios2-elf/lib\libc.a(lib_a-malloc.o)
 .debug_line    0x000019d3      0x80a c:/altera/12.1sp1/nios2eds/bin/gnu/h-i686-mingw32/bin/../lib/gcc/nios2-elf/4.1.2/../../../../nios2-elf/lib\libc.a(lib_a-mallocr.o)
 .debug_line    0x000021dd      0x2f7 c:/altera/12.1sp1/nios2eds/bin/gnu/h-i686-mingw32/bin/../lib/gcc/nios2-elf/4.1.2/../../../../nios2-elf/lib\libc.a(lib_a-puts.o)
 .debug_line    0x000024d4      0x299 c:/altera/12.1sp1/nios2eds/bin/gnu/h-i686-mingw32/bin/../lib/gcc/nios2-elf/4.1.2/../../../../nios2-elf/lib\libc.a(lib_a-sbrkr.o)
 .debug_line    0x0000276d      0x26d c:/altera/12.1sp1/nios2eds/bin/gnu/h-i686-mingw32/bin/../lib/gcc/nios2-elf/4.1.2/../../../../nios2-elf/lib\libc.a(lib_a-strlen.o)
 .debug_line    0x000029da      0x5eb c:/altera/12.1sp1/nios2eds/bin/gnu/h-i686-mingw32/bin/../lib/gcc/nios2-elf/4.1.2/../../../../nios2-elf/lib\libc.a(lib_a-freer.o)
 .debug_line    0x00002fc5      0x641 c:/altera/12.1sp1/nios2eds/bin/gnu/h-i686-mingw32/bin/../lib/gcc/nios2-elf/4.1.2/../../../../nios2-elf/lib\libc.a(lib_a-fvwrite.o)
 .debug_line    0x00003606      0x22d c:/altera/12.1sp1/nios2eds/bin/gnu/h-i686-mingw32/bin/../lib/gcc/nios2-elf/4.1.2/../../../../nios2-elf/lib\libc.a(lib_a-impure.o)
 .debug_line    0x00003833      0x1df c:/altera/12.1sp1/nios2eds/bin/gnu/h-i686-mingw32/bin/../lib/gcc/nios2-elf/4.1.2/../../../../nios2-elf/lib\libc.a(lib_a-int_errno.o)
 .debug_line    0x00003a12      0x303 c:/altera/12.1sp1/nios2eds/bin/gnu/h-i686-mingw32/bin/../lib/gcc/nios2-elf/4.1.2/../../../../nios2-elf/lib\libc.a(lib_a-memchr.o)
 .debug_line    0x00003d15      0x1ac c:/altera/12.1sp1/nios2eds/bin/gnu/h-i686-mingw32/bin/../lib/gcc/nios2-elf/4.1.2/../../../../nios2-elf/lib\libc.a(lib_a-memcpy.o)
 .debug_line    0x00003ec1      0x30a c:/altera/12.1sp1/nios2eds/bin/gnu/h-i686-mingw32/bin/../lib/gcc/nios2-elf/4.1.2/../../../../nios2-elf/lib\libc.a(lib_a-memmove.o)
 .debug_line    0x000041cb      0x58a c:/altera/12.1sp1/nios2eds/bin/gnu/h-i686-mingw32/bin/../lib/gcc/nios2-elf/4.1.2/../../../../nios2-elf/lib\libc.a(lib_a-reallocr.o)
 .debug_line    0x00004755      0x2f0 c:/altera/12.1sp1/nios2eds/bin/gnu/h-i686-mingw32/bin/../lib/gcc/nios2-elf/4.1.2/../../../../nios2-elf/lib\libc.a(lib_a-wsetup.o)
 .debug_line    0x00004a45      0x40d c:/altera/12.1sp1/nios2eds/bin/gnu/h-i686-mingw32/bin/../lib/gcc/nios2-elf/4.1.2/../../../../nios2-elf/lib\libc.a(lib_a-fflush.o)
 .debug_line    0x00004e52      0x601 c:/altera/12.1sp1/nios2eds/bin/gnu/h-i686-mingw32/bin/../lib/gcc/nios2-elf/4.1.2/../../../../nios2-elf/lib\libc.a(lib_a-findfp.o)
 .debug_line    0x00005453      0x34a c:/altera/12.1sp1/nios2eds/bin/gnu/h-i686-mingw32/bin/../lib/gcc/nios2-elf/4.1.2/../../../../nios2-elf/lib\libc.a(lib_a-fwalk.o)
 .debug_line    0x0000579d      0x3c3 c:/altera/12.1sp1/nios2eds/bin/gnu/h-i686-mingw32/bin/../lib/gcc/nios2-elf/4.1.2/../../../../nios2-elf/lib\libc.a(lib_a-makebuf.o)
 .debug_line    0x00005b60      0x301 c:/altera/12.1sp1/nios2eds/bin/gnu/h-i686-mingw32/bin/../lib/gcc/nios2-elf/4.1.2/../../../../nios2-elf/lib\libc.a(lib_a-memset.o)
 .debug_line    0x00005e61      0x38c c:/altera/12.1sp1/nios2eds/bin/gnu/h-i686-mingw32/bin/../lib/gcc/nios2-elf/4.1.2/../../../../nios2-elf/lib\libc.a(lib_a-stdio.o)
 .debug_line    0x000061ed      0x29a c:/altera/12.1sp1/nios2eds/bin/gnu/h-i686-mingw32/bin/../lib/gcc/nios2-elf/4.1.2/../../../../nios2-elf/lib\libc.a(lib_a-writer.o)
 .debug_line    0x00006487      0x29a c:/altera/12.1sp1/nios2eds/bin/gnu/h-i686-mingw32/bin/../lib/gcc/nios2-elf/4.1.2/../../../../nios2-elf/lib\libc.a(lib_a-closer.o)
 .debug_line    0x00006721      0x2e8 c:/altera/12.1sp1/nios2eds/bin/gnu/h-i686-mingw32/bin/../lib/gcc/nios2-elf/4.1.2/../../../../nios2-elf/lib\libc.a(lib_a-fclose.o)
 .debug_line    0x00006a09      0x264 c:/altera/12.1sp1/nios2eds/bin/gnu/h-i686-mingw32/bin/../lib/gcc/nios2-elf/4.1.2/../../../../nios2-elf/lib\libc.a(lib_a-fstatr.o)
 .debug_line    0x00006c6d      0x29b c:/altera/12.1sp1/nios2eds/bin/gnu/h-i686-mingw32/bin/../lib/gcc/nios2-elf/4.1.2/../../../../nios2-elf/lib\libc.a(lib_a-isattyr.o)
 .debug_line    0x00006f08      0x29a c:/altera/12.1sp1/nios2eds/bin/gnu/h-i686-mingw32/bin/../lib/gcc/nios2-elf/4.1.2/../../../../nios2-elf/lib\libc.a(lib_a-lseekr.o)
 .debug_line    0x000071a2      0x299 c:/altera/12.1sp1/nios2eds/bin/gnu/h-i686-mingw32/bin/../lib/gcc/nios2-elf/4.1.2/../../../../nios2-elf/lib\libc.a(lib_a-readr.o)
 .debug_line    0x0000743b      0x2f9 ../transmitter_test_bsp/\libucosii_bsp.a(alt_close.o)
 .debug_line    0x00007734      0x2ba ../transmitter_test_bsp/\libucosii_bsp.a(alt_dev.o)
 .debug_line    0x000079ee      0x1aa ../transmitter_test_bsp/\libucosii_bsp.a(alt_errno.o)
 .debug_line    0x00007b98      0x301 ../transmitter_test_bsp/\libucosii_bsp.a(alt_fstat.o)
 .debug_line    0x00007e99      0x302 ../transmitter_test_bsp/\libucosii_bsp.a(alt_isatty.o)
 .debug_line    0x0000819b      0x217 ../transmitter_test_bsp/\libucosii_bsp.a(alt_load.o)
 .debug_line    0x000083b2      0x301 ../transmitter_test_bsp/\libucosii_bsp.a(alt_lseek.o)
 .debug_line    0x000086b3      0x349 ../transmitter_test_bsp/\libucosii_bsp.a(alt_main.o)
 .debug_line    0x000089fc      0x328 ../transmitter_test_bsp/\libucosii_bsp.a(alt_read.o)
 .debug_line    0x00008d24      0x279 ../transmitter_test_bsp/\libucosii_bsp.a(alt_release_fd.o)
 .debug_line    0x00008f9d      0x261 ../transmitter_test_bsp/\libucosii_bsp.a(alt_sbrk.o)
 .debug_line    0x000091fe      0x329 ../transmitter_test_bsp/\libucosii_bsp.a(alt_write.o)
 .debug_line    0x00009527      0x2bf ../transmitter_test_bsp/\libucosii_bsp.a(alt_env_lock.o)
 .debug_line    0x000097e6      0x37b ../transmitter_test_bsp/\libucosii_bsp.a(alt_malloc_lock.o)
 .debug_line    0x00009b61     0x1663 ../transmitter_test_bsp/\libucosii_bsp.a(os_core.o)
 .debug_line    0x0000b1c4      0x388 ../transmitter_test_bsp/\libucosii_bsp.a(os_dbg.o)
 .debug_line    0x0000b54c     0x11e7 ../transmitter_test_bsp/\libucosii_bsp.a(os_flag.o)
 .debug_line    0x0000c733      0x78a ../transmitter_test_bsp/\libucosii_bsp.a(os_mem.o)
 .debug_line    0x0000cebd      0xe6b ../transmitter_test_bsp/\libucosii_bsp.a(os_q.o)
 .debug_line    0x0000dd28      0xa23 ../transmitter_test_bsp/\libucosii_bsp.a(os_sem.o)
 .debug_line    0x0000e74b     0x112c ../transmitter_test_bsp/\libucosii_bsp.a(os_task.o)
 .debug_line    0x0000f877      0x52f ../transmitter_test_bsp/\libucosii_bsp.a(os_time.o)
 .debug_line    0x0000fda6      0x37d ../transmitter_test_bsp/\libucosii_bsp.a(alt_sys_init.o)
 .debug_line    0x00010123      0x6ef ../transmitter_test_bsp/\libucosii_bsp.a(altera_avalon_epcs_flash_controller.o)
 .debug_line    0x00010812      0x319 ../transmitter_test_bsp/\libucosii_bsp.a(altera_avalon_jtag_uart_fd.o)
 .debug_line    0x00010b2b      0x598 ../transmitter_test_bsp/\libucosii_bsp.a(altera_avalon_jtag_uart_init.o)
 .debug_line    0x000110c3      0x356 ../transmitter_test_bsp/\libucosii_bsp.a(altera_avalon_jtag_uart_ioctl.o)
 .debug_line    0x00011419      0x494 ../transmitter_test_bsp/\libucosii_bsp.a(altera_avalon_jtag_uart_read.o)
 .debug_line    0x000118ad      0x4a2 ../transmitter_test_bsp/\libucosii_bsp.a(altera_avalon_jtag_uart_write.o)
 .debug_line    0x00011d4f      0x2b3 ../transmitter_test_bsp/\libucosii_bsp.a(altera_avalon_timer_sc.o)
 .debug_line    0x00012002      0x408 ../transmitter_test_bsp/\libucosii_bsp.a(epcs_commands.o)
 .debug_line    0x0001240a      0x2dc ../transmitter_test_bsp/\libucosii_bsp.a(alt_alarm_start.o)
 .debug_line    0x000126e6      0x1cd ../transmitter_test_bsp/\libucosii_bsp.a(alt_dcache_flush_all.o)
 .debug_line    0x000128b3      0x25a ../transmitter_test_bsp/\libucosii_bsp.a(alt_dev_llist_insert.o)
 .debug_line    0x00012b0d       0x83 ../transmitter_test_bsp/\libucosii_bsp.a(alt_do_ctors.o)
 .debug_line    0x00012b90       0x83 ../transmitter_test_bsp/\libucosii_bsp.a(alt_do_dtors.o)
 .debug_line    0x00012c13      0x2c8 ../transmitter_test_bsp/\libucosii_bsp.a(alt_flash_dev.o)
 .debug_line    0x00012edb      0x1bd ../transmitter_test_bsp/\libucosii_bsp.a(alt_icache_flush_all.o)
 .debug_line    0x00013098      0x2c8 ../transmitter_test_bsp/\libucosii_bsp.a(alt_iic.o)
 .debug_line    0x00013360      0x249 ../transmitter_test_bsp/\libucosii_bsp.a(alt_iic_isr_register.o)
 .debug_line    0x000135a9      0x323 ../transmitter_test_bsp/\libucosii_bsp.a(alt_io_redirect.o)
 .debug_line    0x000138cc       0x6b ../transmitter_test_bsp/\libucosii_bsp.a(alt_irq_entry.o)
 .debug_line    0x00013937      0x2c4 ../transmitter_test_bsp/\libucosii_bsp.a(alt_irq_handler.o)
 .debug_line    0x00013bfb       0x72 ../transmitter_test_bsp/\libucosii_bsp.a(alt_irq_vars.o)
 .debug_line    0x00013c6d      0x35f ../transmitter_test_bsp/\libucosii_bsp.a(alt_open.o)
 .debug_line    0x00013fcc      0x316 ../transmitter_test_bsp/\libucosii_bsp.a(alt_tick.o)
 .debug_line    0x000142e2      0x1ce ../transmitter_test_bsp/\libucosii_bsp.a(altera_nios2_qsys_irq.o)
 .debug_line    0x000144b0       0x86 ../transmitter_test_bsp/\libucosii_bsp.a(os_cpu_a.o)
 .debug_line    0x00014536      0x328 ../transmitter_test_bsp/\libucosii_bsp.a(os_cpu_c.o)
 .debug_line    0x0001485e      0x1f2 ../transmitter_test_bsp/\libucosii_bsp.a(altera_avalon_spi.o)
 .debug_line    0x00014a50       0xab ../transmitter_test_bsp/\libucosii_bsp.a(alt_exception_entry.o)
 .debug_line    0x00014afb      0x2da ../transmitter_test_bsp/\libucosii_bsp.a(alt_find_dev.o)
 .debug_line    0x00014dd5      0x2eb ../transmitter_test_bsp/\libucosii_bsp.a(alt_find_file.o)
 .debug_line    0x000150c0      0x31b ../transmitter_test_bsp/\libucosii_bsp.a(alt_get_fd.o)
 .debug_line    0x000153db      0x1f9 ../transmitter_test_bsp/\libucosii_bsp.a(alt_icache_flush.o)
 .debug_line    0x000155d4      0x200 c:/altera/12.1sp1/nios2eds/bin/gnu/h-i686-mingw32/bin/../lib/gcc/nios2-elf/4.1.2/../../../../nios2-elf/lib\libc.a(lib_a-atexit.o)
 .debug_line    0x000157d4      0x238 c:/altera/12.1sp1/nios2eds/bin/gnu/h-i686-mingw32/bin/../lib/gcc/nios2-elf/4.1.2/../../../../nios2-elf/lib\libc.a(lib_a-exit.o)
 .debug_line    0x00015a0c      0x29f c:/altera/12.1sp1/nios2eds/bin/gnu/h-i686-mingw32/bin/../lib/gcc/nios2-elf/4.1.2/../../../../nios2-elf/lib\libc.a(lib_a-memcmp.o)
 .debug_line    0x00015cab      0x313 c:/altera/12.1sp1/nios2eds/bin/gnu/h-i686-mingw32/bin/../lib/gcc/nios2-elf/4.1.2/../../../../nios2-elf/lib\libc.a(lib_a-__atexit.o)
 .debug_line    0x00015fbe      0x367 c:/altera/12.1sp1/nios2eds/bin/gnu/h-i686-mingw32/bin/../lib/gcc/nios2-elf/4.1.2/../../../../nios2-elf/lib\libc.a(lib_a-__call_atexit.o)
 .debug_line    0x00016325      0x24f c:/altera/12.1sp1/nios2eds/bin/gnu/h-i686-mingw32/bin/../lib/gcc/nios2-elf/4.1.2\libgcc.a(lib2-divmod.o)
 .debug_line    0x00016574      0x276 ../transmitter_test_bsp/\libucosii_bsp.a(alt_exit.o)

.debug_frame    0x00000000     0x238c
 *(.debug_frame)
 .debug_frame   0x00000000      0x17c obj/default/transmitterInterface.o
 .debug_frame   0x0000017c       0x9c obj/default/transmitter_test.o
 .debug_frame   0x00000218       0xb0 c:/altera/12.1sp1/nios2eds/bin/gnu/h-i686-mingw32/bin/../lib/gcc/nios2-elf/4.1.2/../../../../nios2-elf/lib\libstdc++.a(class_type_info.o)
 .debug_frame   0x000002c8       0x20 c:/altera/12.1sp1/nios2eds/bin/gnu/h-i686-mingw32/bin/../lib/gcc/nios2-elf/4.1.2/../../../../nios2-elf/lib\libstdc++.a(del_op.o)
 .debug_frame   0x000002e8       0x94 c:/altera/12.1sp1/nios2eds/bin/gnu/h-i686-mingw32/bin/../lib/gcc/nios2-elf/4.1.2/../../../../nios2-elf/lib\libstdc++.a(si_class_type_info.o)
 .debug_frame   0x0000037c       0x80 c:/altera/12.1sp1/nios2eds/bin/gnu/h-i686-mingw32/bin/../lib/gcc/nios2-elf/4.1.2/../../../../nios2-elf/lib\libstdc++.a(tinfo.o)
 .debug_frame   0x000003fc       0x30 c:/altera/12.1sp1/nios2eds/bin/gnu/h-i686-mingw32/bin/../lib/gcc/nios2-elf/4.1.2/../../../../nios2-elf/lib\libc.a(lib_a-malloc.o)
 .debug_frame   0x0000042c       0x38 c:/altera/12.1sp1/nios2eds/bin/gnu/h-i686-mingw32/bin/../lib/gcc/nios2-elf/4.1.2/../../../../nios2-elf/lib\libc.a(lib_a-mallocr.o)
 .debug_frame   0x00000464       0x3c c:/altera/12.1sp1/nios2eds/bin/gnu/h-i686-mingw32/bin/../lib/gcc/nios2-elf/4.1.2/../../../../nios2-elf/lib\libc.a(lib_a-puts.o)
 .debug_frame   0x000004a0       0x2c c:/altera/12.1sp1/nios2eds/bin/gnu/h-i686-mingw32/bin/../lib/gcc/nios2-elf/4.1.2/../../../../nios2-elf/lib\libc.a(lib_a-sbrkr.o)
 .debug_frame   0x000004cc       0x20 c:/altera/12.1sp1/nios2eds/bin/gnu/h-i686-mingw32/bin/../lib/gcc/nios2-elf/4.1.2/../../../../nios2-elf/lib\libc.a(lib_a-strlen.o)
 .debug_frame   0x000004ec       0x4c c:/altera/12.1sp1/nios2eds/bin/gnu/h-i686-mingw32/bin/../lib/gcc/nios2-elf/4.1.2/../../../../nios2-elf/lib\libc.a(lib_a-freer.o)
 .debug_frame   0x00000538       0x38 c:/altera/12.1sp1/nios2eds/bin/gnu/h-i686-mingw32/bin/../lib/gcc/nios2-elf/4.1.2/../../../../nios2-elf/lib\libc.a(lib_a-fvwrite.o)
 .debug_frame   0x00000570       0x20 c:/altera/12.1sp1/nios2eds/bin/gnu/h-i686-mingw32/bin/../lib/gcc/nios2-elf/4.1.2/../../../../nios2-elf/lib\libc.a(lib_a-memchr.o)
 .debug_frame   0x00000590       0x20 c:/altera/12.1sp1/nios2eds/bin/gnu/h-i686-mingw32/bin/../lib/gcc/nios2-elf/4.1.2/../../../../nios2-elf/lib\libc.a(lib_a-memcpy.o)
 .debug_frame   0x000005b0       0x20 c:/altera/12.1sp1/nios2eds/bin/gnu/h-i686-mingw32/bin/../lib/gcc/nios2-elf/4.1.2/../../../../nios2-elf/lib\libc.a(lib_a-memmove.o)
 .debug_frame   0x000005d0       0x38 c:/altera/12.1sp1/nios2eds/bin/gnu/h-i686-mingw32/bin/../lib/gcc/nios2-elf/4.1.2/../../../../nios2-elf/lib\libc.a(lib_a-reallocr.o)
 .debug_frame   0x00000608       0x2c c:/altera/12.1sp1/nios2eds/bin/gnu/h-i686-mingw32/bin/../lib/gcc/nios2-elf/4.1.2/../../../../nios2-elf/lib\libc.a(lib_a-wsetup.o)
 .debug_frame   0x00000634       0x40 c:/altera/12.1sp1/nios2eds/bin/gnu/h-i686-mingw32/bin/../lib/gcc/nios2-elf/4.1.2/../../../../nios2-elf/lib\libc.a(lib_a-fflush.o)
 .debug_frame   0x00000674      0x118 c:/altera/12.1sp1/nios2eds/bin/gnu/h-i686-mingw32/bin/../lib/gcc/nios2-elf/4.1.2/../../../../nios2-elf/lib\libc.a(lib_a-findfp.o)
 .debug_frame   0x0000078c       0x60 c:/altera/12.1sp1/nios2eds/bin/gnu/h-i686-mingw32/bin/../lib/gcc/nios2-elf/4.1.2/../../../../nios2-elf/lib\libc.a(lib_a-fwalk.o)
 .debug_frame   0x000007ec       0x2c c:/altera/12.1sp1/nios2eds/bin/gnu/h-i686-mingw32/bin/../lib/gcc/nios2-elf/4.1.2/../../../../nios2-elf/lib\libc.a(lib_a-makebuf.o)
 .debug_frame   0x00000818       0x20 c:/altera/12.1sp1/nios2eds/bin/gnu/h-i686-mingw32/bin/../lib/gcc/nios2-elf/4.1.2/../../../../nios2-elf/lib\libc.a(lib_a-memset.o)
 .debug_frame   0x00000838       0x78 c:/altera/12.1sp1/nios2eds/bin/gnu/h-i686-mingw32/bin/../lib/gcc/nios2-elf/4.1.2/../../../../nios2-elf/lib\libc.a(lib_a-stdio.o)
 .debug_frame   0x000008b0       0x2c c:/altera/12.1sp1/nios2eds/bin/gnu/h-i686-mingw32/bin/../lib/gcc/nios2-elf/4.1.2/../../../../nios2-elf/lib\libc.a(lib_a-writer.o)
 .debug_frame   0x000008dc       0x2c c:/altera/12.1sp1/nios2eds/bin/gnu/h-i686-mingw32/bin/../lib/gcc/nios2-elf/4.1.2/../../../../nios2-elf/lib\libc.a(lib_a-closer.o)
 .debug_frame   0x00000908       0x3c c:/altera/12.1sp1/nios2eds/bin/gnu/h-i686-mingw32/bin/../lib/gcc/nios2-elf/4.1.2/../../../../nios2-elf/lib\libc.a(lib_a-fclose.o)
 .debug_frame   0x00000944       0x2c c:/altera/12.1sp1/nios2eds/bin/gnu/h-i686-mingw32/bin/../lib/gcc/nios2-elf/4.1.2/../../../../nios2-elf/lib\libc.a(lib_a-fstatr.o)
 .debug_frame   0x00000970       0x2c c:/altera/12.1sp1/nios2eds/bin/gnu/h-i686-mingw32/bin/../lib/gcc/nios2-elf/4.1.2/../../../../nios2-elf/lib\libc.a(lib_a-isattyr.o)
 .debug_frame   0x0000099c       0x2c c:/altera/12.1sp1/nios2eds/bin/gnu/h-i686-mingw32/bin/../lib/gcc/nios2-elf/4.1.2/../../../../nios2-elf/lib\libc.a(lib_a-lseekr.o)
 .debug_frame   0x000009c8       0x2c c:/altera/12.1sp1/nios2eds/bin/gnu/h-i686-mingw32/bin/../lib/gcc/nios2-elf/4.1.2/../../../../nios2-elf/lib\libc.a(lib_a-readr.o)
 .debug_frame   0x000009f4       0x48 ../transmitter_test_bsp/\libucosii_bsp.a(alt_close.o)
 .debug_frame   0x00000a3c       0x2c ../transmitter_test_bsp/\libucosii_bsp.a(alt_dev.o)
 .debug_frame   0x00000a68       0x48 ../transmitter_test_bsp/\libucosii_bsp.a(alt_fstat.o)
 .debug_frame   0x00000ab0       0x48 ../transmitter_test_bsp/\libucosii_bsp.a(alt_isatty.o)
 .debug_frame   0x00000af8       0x48 ../transmitter_test_bsp/\libucosii_bsp.a(alt_load.o)
 .debug_frame   0x00000b40       0x48 ../transmitter_test_bsp/\libucosii_bsp.a(alt_lseek.o)
 .debug_frame   0x00000b88       0x2c ../transmitter_test_bsp/\libucosii_bsp.a(alt_main.o)
 .debug_frame   0x00000bb4       0x48 ../transmitter_test_bsp/\libucosii_bsp.a(alt_read.o)
 .debug_frame   0x00000bfc       0x2c ../transmitter_test_bsp/\libucosii_bsp.a(alt_release_fd.o)
 .debug_frame   0x00000c28       0x2c ../transmitter_test_bsp/\libucosii_bsp.a(alt_sbrk.o)
 .debug_frame   0x00000c54       0x48 ../transmitter_test_bsp/\libucosii_bsp.a(alt_write.o)
 .debug_frame   0x00000c9c       0x4c ../transmitter_test_bsp/\libucosii_bsp.a(alt_env_lock.o)
 .debug_frame   0x00000ce8       0x4c ../transmitter_test_bsp/\libucosii_bsp.a(alt_malloc_lock.o)
 .debug_frame   0x00000d34      0x3e4 ../transmitter_test_bsp/\libucosii_bsp.a(os_core.o)
 .debug_frame   0x00001118       0x2c ../transmitter_test_bsp/\libucosii_bsp.a(os_dbg.o)
 .debug_frame   0x00001144      0x180 ../transmitter_test_bsp/\libucosii_bsp.a(os_flag.o)
 .debug_frame   0x000012c4       0xd4 ../transmitter_test_bsp/\libucosii_bsp.a(os_mem.o)
 .debug_frame   0x00001398      0x144 ../transmitter_test_bsp/\libucosii_bsp.a(os_q.o)
 .debug_frame   0x000014dc       0xf0 ../transmitter_test_bsp/\libucosii_bsp.a(os_sem.o)
 .debug_frame   0x000015cc      0x160 ../transmitter_test_bsp/\libucosii_bsp.a(os_task.o)
 .debug_frame   0x0000172c       0xa0 ../transmitter_test_bsp/\libucosii_bsp.a(os_time.o)
 .debug_frame   0x000017cc       0x64 ../transmitter_test_bsp/\libucosii_bsp.a(alt_sys_init.o)
 .debug_frame   0x00001830      0x128 ../transmitter_test_bsp/\libucosii_bsp.a(altera_avalon_epcs_flash_controller.o)
 .debug_frame   0x00001958       0x80 ../transmitter_test_bsp/\libucosii_bsp.a(altera_avalon_jtag_uart_fd.o)
 .debug_frame   0x000019d8       0x80 ../transmitter_test_bsp/\libucosii_bsp.a(altera_avalon_jtag_uart_init.o)
 .debug_frame   0x00001a58       0x2c ../transmitter_test_bsp/\libucosii_bsp.a(altera_avalon_jtag_uart_ioctl.o)
 .debug_frame   0x00001a84       0x2c ../transmitter_test_bsp/\libucosii_bsp.a(altera_avalon_jtag_uart_read.o)
 .debug_frame   0x00001ab0       0x2c ../transmitter_test_bsp/\libucosii_bsp.a(altera_avalon_jtag_uart_write.o)
 .debug_frame   0x00001adc       0x48 ../transmitter_test_bsp/\libucosii_bsp.a(altera_avalon_timer_sc.o)
 .debug_frame   0x00001b24      0x160 ../transmitter_test_bsp/\libucosii_bsp.a(epcs_commands.o)
 .debug_frame   0x00001c84       0x2c ../transmitter_test_bsp/\libucosii_bsp.a(alt_alarm_start.o)
 .debug_frame   0x00001cb0       0x2c ../transmitter_test_bsp/\libucosii_bsp.a(alt_dcache_flush_all.o)
 .debug_frame   0x00001cdc       0x48 ../transmitter_test_bsp/\libucosii_bsp.a(alt_dev_llist_insert.o)
 .debug_frame   0x00001d24       0x2c ../transmitter_test_bsp/\libucosii_bsp.a(alt_do_ctors.o)
 .debug_frame   0x00001d50       0x2c ../transmitter_test_bsp/\libucosii_bsp.a(alt_do_dtors.o)
 .debug_frame   0x00001d7c       0x48 ../transmitter_test_bsp/\libucosii_bsp.a(alt_flash_dev.o)
 .debug_frame   0x00001dc4       0x2c ../transmitter_test_bsp/\libucosii_bsp.a(alt_icache_flush_all.o)
 .debug_frame   0x00001df0       0x80 ../transmitter_test_bsp/\libucosii_bsp.a(alt_iic.o)
 .debug_frame   0x00001e70       0x2c ../transmitter_test_bsp/\libucosii_bsp.a(alt_iic_isr_register.o)
 .debug_frame   0x00001e9c       0x48 ../transmitter_test_bsp/\libucosii_bsp.a(alt_io_redirect.o)
 .debug_frame   0x00001ee4       0x2c ../transmitter_test_bsp/\libucosii_bsp.a(alt_irq_handler.o)
 .debug_frame   0x00001f10       0x64 ../transmitter_test_bsp/\libucosii_bsp.a(alt_open.o)
 .debug_frame   0x00001f74       0x48 ../transmitter_test_bsp/\libucosii_bsp.a(alt_tick.o)
 .debug_frame   0x00001fbc       0x2c ../transmitter_test_bsp/\libucosii_bsp.a(altera_nios2_qsys_irq.o)
 .debug_frame   0x00001fe8      0x128 ../transmitter_test_bsp/\libucosii_bsp.a(os_cpu_c.o)
 .debug_frame   0x00002110       0x2c ../transmitter_test_bsp/\libucosii_bsp.a(altera_avalon_spi.o)
 .debug_frame   0x0000213c       0x2c ../transmitter_test_bsp/\libucosii_bsp.a(alt_find_dev.o)
 .debug_frame   0x00002168       0x2c ../transmitter_test_bsp/\libucosii_bsp.a(alt_find_file.o)
 .debug_frame   0x00002194       0x2c ../transmitter_test_bsp/\libucosii_bsp.a(alt_get_fd.o)
 .debug_frame   0x000021c0       0x2c ../transmitter_test_bsp/\libucosii_bsp.a(alt_icache_flush.o)
 .debug_frame   0x000021ec       0x20 c:/altera/12.1sp1/nios2eds/bin/gnu/h-i686-mingw32/bin/../lib/gcc/nios2-elf/4.1.2/../../../../nios2-elf/lib\libc.a(lib_a-atexit.o)
 .debug_frame   0x0000220c       0x28 c:/altera/12.1sp1/nios2eds/bin/gnu/h-i686-mingw32/bin/../lib/gcc/nios2-elf/4.1.2/../../../../nios2-elf/lib\libc.a(lib_a-exit.o)
 .debug_frame   0x00002234       0x20 c:/altera/12.1sp1/nios2eds/bin/gnu/h-i686-mingw32/bin/../lib/gcc/nios2-elf/4.1.2/../../../../nios2-elf/lib\libc.a(lib_a-memcmp.o)
 .debug_frame   0x00002254       0x34 c:/altera/12.1sp1/nios2eds/bin/gnu/h-i686-mingw32/bin/../lib/gcc/nios2-elf/4.1.2/../../../../nios2-elf/lib\libc.a(lib_a-__atexit.o)
 .debug_frame   0x00002288       0x4c c:/altera/12.1sp1/nios2eds/bin/gnu/h-i686-mingw32/bin/../lib/gcc/nios2-elf/4.1.2/../../../../nios2-elf/lib\libc.a(lib_a-__call_atexit.o)
 .debug_frame   0x000022d4       0x70 c:/altera/12.1sp1/nios2eds/bin/gnu/h-i686-mingw32/bin/../lib/gcc/nios2-elf/4.1.2\libgcc.a(lib2-divmod.o)
 .debug_frame   0x00002344       0x48 ../transmitter_test_bsp/\libucosii_bsp.a(alt_exit.o)

.debug_str      0x00000000     0x2492
 *(.debug_str)
 .debug_str     0x00000000       0x60 obj/default/transmitterInterface.o
 .debug_str     0x00000060       0x42 obj/default/transmitter_test.o
 .debug_str     0x000000a2      0x676 c:/altera/12.1sp1/nios2eds/bin/gnu/h-i686-mingw32/bin/../lib/gcc/nios2-elf/4.1.2/../../../../nios2-elf/lib\libstdc++.a(class_type_info.o)
                                0x6dc (size before relaxing)
 .debug_str     0x00000718      0x138 c:/altera/12.1sp1/nios2eds/bin/gnu/h-i686-mingw32/bin/../lib/gcc/nios2-elf/4.1.2/../../../../nios2-elf/lib\libstdc++.a(del_op.o)
                                0x230 (size before relaxing)
 .debug_str     0x00000850      0x1f8 c:/altera/12.1sp1/nios2eds/bin/gnu/h-i686-mingw32/bin/../lib/gcc/nios2-elf/4.1.2/../../../../nios2-elf/lib\libstdc++.a(si_class_type_info.o)
                                0x889 (size before relaxing)
 .debug_str     0x00000a48       0x38 c:/altera/12.1sp1/nios2eds/bin/gnu/h-i686-mingw32/bin/../lib/gcc/nios2-elf/4.1.2/../../../../nios2-elf/lib\libstdc++.a(tinfo.o)
                                0x698 (size before relaxing)
 .debug_str     0x00000a80      0x43e c:/altera/12.1sp1/nios2eds/bin/gnu/h-i686-mingw32/bin/../lib/gcc/nios2-elf/4.1.2/../../../../nios2-elf/lib\libc.a(lib_a-malloc.o)
                                0x51c (size before relaxing)
 .debug_str     0x00000ebe      0x208 c:/altera/12.1sp1/nios2eds/bin/gnu/h-i686-mingw32/bin/../lib/gcc/nios2-elf/4.1.2/../../../../nios2-elf/lib\libc.a(lib_a-mallocr.o)
                                0x6f1 (size before relaxing)
 .debug_str     0x000010c6      0x10c c:/altera/12.1sp1/nios2eds/bin/gnu/h-i686-mingw32/bin/../lib/gcc/nios2-elf/4.1.2/../../../../nios2-elf/lib\libc.a(lib_a-puts.o)
                                0x549 (size before relaxing)
 .debug_str     0x000011d2       0xd1 c:/altera/12.1sp1/nios2eds/bin/gnu/h-i686-mingw32/bin/../lib/gcc/nios2-elf/4.1.2/../../../../nios2-elf/lib\libc.a(lib_a-sbrkr.o)
                                0x50b (size before relaxing)
 .debug_str     0x000012a3       0xdb c:/altera/12.1sp1/nios2eds/bin/gnu/h-i686-mingw32/bin/../lib/gcc/nios2-elf/4.1.2/../../../../nios2-elf/lib\libc.a(lib_a-strlen.o)
                                0x17d (size before relaxing)
 .debug_str     0x0000137e       0x3c c:/altera/12.1sp1/nios2eds/bin/gnu/h-i686-mingw32/bin/../lib/gcc/nios2-elf/4.1.2/../../../../nios2-elf/lib\libc.a(lib_a-freer.o)
                                0x643 (size before relaxing)
 .debug_str     0x000013ba       0x66 c:/altera/12.1sp1/nios2eds/bin/gnu/h-i686-mingw32/bin/../lib/gcc/nios2-elf/4.1.2/../../../../nios2-elf/lib\libc.a(lib_a-fvwrite.o)
                                0x563 (size before relaxing)
 .debug_str     0x00001420       0x59 c:/altera/12.1sp1/nios2eds/bin/gnu/h-i686-mingw32/bin/../lib/gcc/nios2-elf/4.1.2/../../../../nios2-elf/lib\libc.a(lib_a-impure.o)
                                0x51a (size before relaxing)
 .debug_str     0x00001479       0x3d c:/altera/12.1sp1/nios2eds/bin/gnu/h-i686-mingw32/bin/../lib/gcc/nios2-elf/4.1.2/../../../../nios2-elf/lib\libc.a(lib_a-int_errno.o)
                                0x163 (size before relaxing)
 .debug_str     0x000014b6       0x5e c:/altera/12.1sp1/nios2eds/bin/gnu/h-i686-mingw32/bin/../lib/gcc/nios2-elf/4.1.2/../../../../nios2-elf/lib\libc.a(lib_a-memchr.o)
                                0x18b (size before relaxing)
 .debug_str     0x00001514       0x69 c:/altera/12.1sp1/nios2eds/bin/gnu/h-i686-mingw32/bin/../lib/gcc/nios2-elf/4.1.2/../../../../nios2-elf/lib\libc.a(lib_a-memcpy.o)
                                0x128 (size before relaxing)
 .debug_str     0x0000157d       0x4d c:/altera/12.1sp1/nios2eds/bin/gnu/h-i686-mingw32/bin/../lib/gcc/nios2-elf/4.1.2/../../../../nios2-elf/lib\libc.a(lib_a-memmove.o)
                                0x19d (size before relaxing)
 .debug_str     0x000015ca       0x59 c:/altera/12.1sp1/nios2eds/bin/gnu/h-i686-mingw32/bin/../lib/gcc/nios2-elf/4.1.2/../../../../nios2-elf/lib\libc.a(lib_a-reallocr.o)
                                0x5c3 (size before relaxing)
 .debug_str     0x00001623       0x46 c:/altera/12.1sp1/nios2eds/bin/gnu/h-i686-mingw32/bin/../lib/gcc/nios2-elf/4.1.2/../../../../nios2-elf/lib\libc.a(lib_a-wsetup.o)
                                0x50c (size before relaxing)
 .debug_str     0x00001669       0x52 c:/altera/12.1sp1/nios2eds/bin/gnu/h-i686-mingw32/bin/../lib/gcc/nios2-elf/4.1.2/../../../../nios2-elf/lib\libc.a(lib_a-fflush.o)
                                0x532 (size before relaxing)
 .debug_str     0x000016bb      0x102 c:/altera/12.1sp1/nios2eds/bin/gnu/h-i686-mingw32/bin/../lib/gcc/nios2-elf/4.1.2/../../../../nios2-elf/lib\libc.a(lib_a-findfp.o)
                                0x5f4 (size before relaxing)
 .debug_str     0x000017bd       0x5e c:/altera/12.1sp1/nios2eds/bin/gnu/h-i686-mingw32/bin/../lib/gcc/nios2-elf/4.1.2/../../../../nios2-elf/lib\libc.a(lib_a-fwalk.o)
                                0x535 (size before relaxing)
 .debug_str     0x0000181b      0x123 c:/altera/12.1sp1/nios2eds/bin/gnu/h-i686-mingw32/bin/../lib/gcc/nios2-elf/4.1.2/../../../../nios2-elf/lib\libc.a(lib_a-makebuf.o)
                                0x606 (size before relaxing)
 .debug_str     0x0000193e       0x42 c:/altera/12.1sp1/nios2eds/bin/gnu/h-i686-mingw32/bin/../lib/gcc/nios2-elf/4.1.2/../../../../nios2-elf/lib\libc.a(lib_a-memset.o)
                                0x17e (size before relaxing)
 .debug_str     0x00001980       0x62 c:/altera/12.1sp1/nios2eds/bin/gnu/h-i686-mingw32/bin/../lib/gcc/nios2-elf/4.1.2/../../../../nios2-elf/lib\libc.a(lib_a-stdio.o)
                                0x531 (size before relaxing)
 .debug_str     0x000019e2       0x4c c:/altera/12.1sp1/nios2eds/bin/gnu/h-i686-mingw32/bin/../lib/gcc/nios2-elf/4.1.2/../../../../nios2-elf/lib\libc.a(lib_a-writer.o)
                                0x50e (size before relaxing)
 .debug_str     0x00001a2e       0x43 c:/altera/12.1sp1/nios2eds/bin/gnu/h-i686-mingw32/bin/../lib/gcc/nios2-elf/4.1.2/../../../../nios2-elf/lib\libc.a(lib_a-closer.o)
                                0x4fe (size before relaxing)
 .debug_str     0x00001a71       0x50 c:/altera/12.1sp1/nios2eds/bin/gnu/h-i686-mingw32/bin/../lib/gcc/nios2-elf/4.1.2/../../../../nios2-elf/lib\libc.a(lib_a-fclose.o)
                                0x516 (size before relaxing)
 .debug_str     0x00001ac1       0x49 c:/altera/12.1sp1/nios2eds/bin/gnu/h-i686-mingw32/bin/../lib/gcc/nios2-elf/4.1.2/../../../../nios2-elf/lib\libc.a(lib_a-fstatr.o)
                                0x5f1 (size before relaxing)
 .debug_str     0x00001b0a       0x45 c:/altera/12.1sp1/nios2eds/bin/gnu/h-i686-mingw32/bin/../lib/gcc/nios2-elf/4.1.2/../../../../nios2-elf/lib\libc.a(lib_a-isattyr.o)
                                0x500 (size before relaxing)
 .debug_str     0x00001b4f       0x43 c:/altera/12.1sp1/nios2eds/bin/gnu/h-i686-mingw32/bin/../lib/gcc/nios2-elf/4.1.2/../../../../nios2-elf/lib\libc.a(lib_a-lseekr.o)
                                0x50c (size before relaxing)
 .debug_str     0x00001b92       0x41 c:/altera/12.1sp1/nios2eds/bin/gnu/h-i686-mingw32/bin/../lib/gcc/nios2-elf/4.1.2/../../../../nios2-elf/lib\libc.a(lib_a-readr.o)
                                0x50c (size before relaxing)
 .debug_str     0x00001bd3       0x12 ../transmitter_test_bsp/\libucosii_bsp.a(alt_close.o)
 .debug_str     0x00001be5       0x12 ../transmitter_test_bsp/\libucosii_bsp.a(alt_dev.o)
 .debug_str     0x00001bf7       0x12 ../transmitter_test_bsp/\libucosii_bsp.a(alt_errno.o)
 .debug_str     0x00001c09       0x12 ../transmitter_test_bsp/\libucosii_bsp.a(alt_fstat.o)
 .debug_str     0x00001c1b       0x12 ../transmitter_test_bsp/\libucosii_bsp.a(alt_isatty.o)
 .debug_str     0x00001c2d       0x12 ../transmitter_test_bsp/\libucosii_bsp.a(alt_load.o)
 .debug_str     0x00001c3f       0x12 ../transmitter_test_bsp/\libucosii_bsp.a(alt_lseek.o)
 .debug_str     0x00001c51       0x12 ../transmitter_test_bsp/\libucosii_bsp.a(alt_main.o)
 .debug_str     0x00001c63       0x12 ../transmitter_test_bsp/\libucosii_bsp.a(alt_read.o)
 .debug_str     0x00001c75       0x12 ../transmitter_test_bsp/\libucosii_bsp.a(alt_release_fd.o)
 .debug_str     0x00001c87       0x1a ../transmitter_test_bsp/\libucosii_bsp.a(alt_sbrk.o)
 .debug_str     0x00001ca1       0x12 ../transmitter_test_bsp/\libucosii_bsp.a(alt_write.o)
 .debug_str     0x00001cb3       0x36 ../transmitter_test_bsp/\libucosii_bsp.a(alt_env_lock.o)
 .debug_str     0x00001ce9       0x36 ../transmitter_test_bsp/\libucosii_bsp.a(alt_malloc_lock.o)
 .debug_str     0x00001d1f       0x46 ../transmitter_test_bsp/\libucosii_bsp.a(os_core.o)
 .debug_str     0x00001d65       0x2b ../transmitter_test_bsp/\libucosii_bsp.a(os_dbg.o)
 .debug_str     0x00001d90       0x4e ../transmitter_test_bsp/\libucosii_bsp.a(os_flag.o)
 .debug_str     0x00001dde       0x2c ../transmitter_test_bsp/\libucosii_bsp.a(os_mem.o)
 .debug_str     0x00001e0a       0x36 ../transmitter_test_bsp/\libucosii_bsp.a(os_q.o)
 .debug_str     0x00001e40       0x36 ../transmitter_test_bsp/\libucosii_bsp.a(os_sem.o)
 .debug_str     0x00001e76       0x23 ../transmitter_test_bsp/\libucosii_bsp.a(os_task.o)
 .debug_str     0x00001e99       0x1f ../transmitter_test_bsp/\libucosii_bsp.a(os_time.o)
 .debug_str     0x00001eb8       0x58 ../transmitter_test_bsp/\libucosii_bsp.a(alt_sys_init.o)
 .debug_str     0x00001f10       0x90 ../transmitter_test_bsp/\libucosii_bsp.a(altera_avalon_epcs_flash_controller.o)
 .debug_str     0x00001fa0       0x12 ../transmitter_test_bsp/\libucosii_bsp.a(altera_avalon_jtag_uart_fd.o)
 .debug_str     0x00001fb2       0x1a ../transmitter_test_bsp/\libucosii_bsp.a(altera_avalon_jtag_uart_init.o)
 .debug_str     0x00001fcc       0x12 ../transmitter_test_bsp/\libucosii_bsp.a(altera_avalon_jtag_uart_ioctl.o)
 .debug_str     0x00001fde       0x22 ../transmitter_test_bsp/\libucosii_bsp.a(altera_avalon_jtag_uart_read.o)
 .debug_str     0x00002000       0x22 ../transmitter_test_bsp/\libucosii_bsp.a(altera_avalon_jtag_uart_write.o)
 .debug_str     0x00002022       0x12 ../transmitter_test_bsp/\libucosii_bsp.a(altera_avalon_timer_sc.o)
 .debug_str     0x00002034       0x2e ../transmitter_test_bsp/\libucosii_bsp.a(epcs_commands.o)
 .debug_str     0x00002062       0x23 ../transmitter_test_bsp/\libucosii_bsp.a(alt_alarm_start.o)
 .debug_str     0x00002085       0x12 ../transmitter_test_bsp/\libucosii_bsp.a(alt_dcache_flush_all.o)
 .debug_str     0x00002097       0x12 ../transmitter_test_bsp/\libucosii_bsp.a(alt_dev_llist_insert.o)
 .debug_str     0x000020a9       0x2d ../transmitter_test_bsp/\libucosii_bsp.a(alt_flash_dev.o)
 .debug_str     0x000020d6       0x12 ../transmitter_test_bsp/\libucosii_bsp.a(alt_icache_flush_all.o)
 .debug_str     0x000020e8       0x18 ../transmitter_test_bsp/\libucosii_bsp.a(alt_iic.o)
 .debug_str     0x00002100       0x1a ../transmitter_test_bsp/\libucosii_bsp.a(alt_iic_isr_register.o)
 .debug_str     0x0000211a       0x12 ../transmitter_test_bsp/\libucosii_bsp.a(alt_io_redirect.o)
 .debug_str     0x0000212c       0x12 ../transmitter_test_bsp/\libucosii_bsp.a(alt_irq_handler.o)
 .debug_str     0x0000213e       0x12 ../transmitter_test_bsp/\libucosii_bsp.a(alt_open.o)
 .debug_str     0x00002150       0x1a ../transmitter_test_bsp/\libucosii_bsp.a(alt_tick.o)
 .debug_str     0x0000216a       0x12 ../transmitter_test_bsp/\libucosii_bsp.a(altera_nios2_qsys_irq.o)
 .debug_str     0x0000217c       0x20 ../transmitter_test_bsp/\libucosii_bsp.a(os_cpu_c.o)
 .debug_str     0x0000219c       0x12 ../transmitter_test_bsp/\libucosii_bsp.a(alt_find_dev.o)
 .debug_str     0x000021ae       0x12 ../transmitter_test_bsp/\libucosii_bsp.a(alt_find_file.o)
 .debug_str     0x000021c0       0x12 ../transmitter_test_bsp/\libucosii_bsp.a(alt_get_fd.o)
 .debug_str     0x000021d2       0x12 ../transmitter_test_bsp/\libucosii_bsp.a(alt_icache_flush.o)
 .debug_str     0x000021e4       0x3b c:/altera/12.1sp1/nios2eds/bin/gnu/h-i686-mingw32/bin/../lib/gcc/nios2-elf/4.1.2/../../../../nios2-elf/lib\libc.a(lib_a-atexit.o)
                                0x1bf (size before relaxing)
 .debug_str     0x0000221f       0x3e c:/altera/12.1sp1/nios2eds/bin/gnu/h-i686-mingw32/bin/../lib/gcc/nios2-elf/4.1.2/../../../../nios2-elf/lib\libc.a(lib_a-exit.o)
                                0x50c (size before relaxing)
 .debug_str     0x0000225d       0x42 c:/altera/12.1sp1/nios2eds/bin/gnu/h-i686-mingw32/bin/../lib/gcc/nios2-elf/4.1.2/../../../../nios2-elf/lib\libc.a(lib_a-memcmp.o)
                                0x16a (size before relaxing)
 .debug_str     0x0000229f       0x51 c:/altera/12.1sp1/nios2eds/bin/gnu/h-i686-mingw32/bin/../lib/gcc/nios2-elf/4.1.2/../../../../nios2-elf/lib\libc.a(lib_a-__atexit.o)
                                0x524 (size before relaxing)
 .debug_str     0x000022f0       0x7b c:/altera/12.1sp1/nios2eds/bin/gnu/h-i686-mingw32/bin/../lib/gcc/nios2-elf/4.1.2/../../../../nios2-elf/lib\libc.a(lib_a-__call_atexit.o)
                                0x54e (size before relaxing)
 .debug_str     0x0000236b      0x10b c:/altera/12.1sp1/nios2eds/bin/gnu/h-i686-mingw32/bin/../lib/gcc/nios2-elf/4.1.2\libgcc.a(lib2-divmod.o)
                                0x1b4 (size before relaxing)
 .debug_str     0x00002476       0x1c ../transmitter_test_bsp/\libucosii_bsp.a(alt_exit.o)

.debug_loc      0x00000000     0x5ed9
 *(.debug_loc)
 .debug_loc     0x00000000      0x22f obj/default/transmitterInterface.o
 .debug_loc     0x0000022f       0xd7 obj/default/transmitter_test.o
 .debug_loc     0x00000306      0x26f c:/altera/12.1sp1/nios2eds/bin/gnu/h-i686-mingw32/bin/../lib/gcc/nios2-elf/4.1.2/../../../../nios2-elf/lib\libstdc++.a(class_type_info.o)
 .debug_loc     0x00000575       0x1e c:/altera/12.1sp1/nios2eds/bin/gnu/h-i686-mingw32/bin/../lib/gcc/nios2-elf/4.1.2/../../../../nios2-elf/lib\libstdc++.a(del_op.o)
 .debug_loc     0x00000593      0x390 c:/altera/12.1sp1/nios2eds/bin/gnu/h-i686-mingw32/bin/../lib/gcc/nios2-elf/4.1.2/../../../../nios2-elf/lib\libstdc++.a(si_class_type_info.o)
 .debug_loc     0x00000923       0x13 c:/altera/12.1sp1/nios2eds/bin/gnu/h-i686-mingw32/bin/../lib/gcc/nios2-elf/4.1.2/../../../../nios2-elf/lib\libstdc++.a(tinfo.o)
 .debug_loc     0x00000936       0x3c c:/altera/12.1sp1/nios2eds/bin/gnu/h-i686-mingw32/bin/../lib/gcc/nios2-elf/4.1.2/../../../../nios2-elf/lib\libc.a(lib_a-malloc.o)
 .debug_loc     0x00000972      0xaeb c:/altera/12.1sp1/nios2eds/bin/gnu/h-i686-mingw32/bin/../lib/gcc/nios2-elf/4.1.2/../../../../nios2-elf/lib\libc.a(lib_a-mallocr.o)
 .debug_loc     0x0000145d       0xa2 c:/altera/12.1sp1/nios2eds/bin/gnu/h-i686-mingw32/bin/../lib/gcc/nios2-elf/4.1.2/../../../../nios2-elf/lib\libc.a(lib_a-puts.o)
 .debug_loc     0x000014ff       0x5b c:/altera/12.1sp1/nios2eds/bin/gnu/h-i686-mingw32/bin/../lib/gcc/nios2-elf/4.1.2/../../../../nios2-elf/lib\libc.a(lib_a-sbrkr.o)
 .debug_loc     0x0000155a       0x3c c:/altera/12.1sp1/nios2eds/bin/gnu/h-i686-mingw32/bin/../lib/gcc/nios2-elf/4.1.2/../../../../nios2-elf/lib\libc.a(lib_a-strlen.o)
 .debug_loc     0x00001596      0x4a7 c:/altera/12.1sp1/nios2eds/bin/gnu/h-i686-mingw32/bin/../lib/gcc/nios2-elf/4.1.2/../../../../nios2-elf/lib\libc.a(lib_a-freer.o)
 .debug_loc     0x00001a3d      0x4e4 c:/altera/12.1sp1/nios2eds/bin/gnu/h-i686-mingw32/bin/../lib/gcc/nios2-elf/4.1.2/../../../../nios2-elf/lib\libc.a(lib_a-fvwrite.o)
 .debug_loc     0x00001f21      0x106 c:/altera/12.1sp1/nios2eds/bin/gnu/h-i686-mingw32/bin/../lib/gcc/nios2-elf/4.1.2/../../../../nios2-elf/lib\libc.a(lib_a-memchr.o)
 .debug_loc     0x00002027       0xca c:/altera/12.1sp1/nios2eds/bin/gnu/h-i686-mingw32/bin/../lib/gcc/nios2-elf/4.1.2/../../../../nios2-elf/lib\libc.a(lib_a-memcpy.o)
 .debug_loc     0x000020f1      0x117 c:/altera/12.1sp1/nios2eds/bin/gnu/h-i686-mingw32/bin/../lib/gcc/nios2-elf/4.1.2/../../../../nios2-elf/lib\libc.a(lib_a-memmove.o)
 .debug_loc     0x00002208      0x8c0 c:/altera/12.1sp1/nios2eds/bin/gnu/h-i686-mingw32/bin/../lib/gcc/nios2-elf/4.1.2/../../../../nios2-elf/lib\libc.a(lib_a-reallocr.o)
 .debug_loc     0x00002ac8       0x7c c:/altera/12.1sp1/nios2eds/bin/gnu/h-i686-mingw32/bin/../lib/gcc/nios2-elf/4.1.2/../../../../nios2-elf/lib\libc.a(lib_a-wsetup.o)
 .debug_loc     0x00002b44      0x1f6 c:/altera/12.1sp1/nios2eds/bin/gnu/h-i686-mingw32/bin/../lib/gcc/nios2-elf/4.1.2/../../../../nios2-elf/lib\libc.a(lib_a-fflush.o)
 .debug_loc     0x00002d3a      0x19f c:/altera/12.1sp1/nios2eds/bin/gnu/h-i686-mingw32/bin/../lib/gcc/nios2-elf/4.1.2/../../../../nios2-elf/lib\libc.a(lib_a-findfp.o)
 .debug_loc     0x00002ed9      0x1d2 c:/altera/12.1sp1/nios2eds/bin/gnu/h-i686-mingw32/bin/../lib/gcc/nios2-elf/4.1.2/../../../../nios2-elf/lib\libc.a(lib_a-fwalk.o)
 .debug_loc     0x000030ab      0x11c c:/altera/12.1sp1/nios2eds/bin/gnu/h-i686-mingw32/bin/../lib/gcc/nios2-elf/4.1.2/../../../../nios2-elf/lib\libc.a(lib_a-makebuf.o)
 .debug_loc     0x000031c7       0xa1 c:/altera/12.1sp1/nios2eds/bin/gnu/h-i686-mingw32/bin/../lib/gcc/nios2-elf/4.1.2/../../../../nios2-elf/lib\libc.a(lib_a-memset.o)
 .debug_loc     0x00003268      0x21f c:/altera/12.1sp1/nios2eds/bin/gnu/h-i686-mingw32/bin/../lib/gcc/nios2-elf/4.1.2/../../../../nios2-elf/lib\libc.a(lib_a-stdio.o)
 .debug_loc     0x00003487       0x97 c:/altera/12.1sp1/nios2eds/bin/gnu/h-i686-mingw32/bin/../lib/gcc/nios2-elf/4.1.2/../../../../nios2-elf/lib\libc.a(lib_a-writer.o)
 .debug_loc     0x0000351e       0x5b c:/altera/12.1sp1/nios2eds/bin/gnu/h-i686-mingw32/bin/../lib/gcc/nios2-elf/4.1.2/../../../../nios2-elf/lib\libc.a(lib_a-closer.o)
 .debug_loc     0x00003579       0xe4 c:/altera/12.1sp1/nios2eds/bin/gnu/h-i686-mingw32/bin/../lib/gcc/nios2-elf/4.1.2/../../../../nios2-elf/lib\libc.a(lib_a-fclose.o)
 .debug_loc     0x0000365d       0x79 c:/altera/12.1sp1/nios2eds/bin/gnu/h-i686-mingw32/bin/../lib/gcc/nios2-elf/4.1.2/../../../../nios2-elf/lib\libc.a(lib_a-fstatr.o)
 .debug_loc     0x000036d6       0x5b c:/altera/12.1sp1/nios2eds/bin/gnu/h-i686-mingw32/bin/../lib/gcc/nios2-elf/4.1.2/../../../../nios2-elf/lib\libc.a(lib_a-isattyr.o)
 .debug_loc     0x00003731       0x97 c:/altera/12.1sp1/nios2eds/bin/gnu/h-i686-mingw32/bin/../lib/gcc/nios2-elf/4.1.2/../../../../nios2-elf/lib\libc.a(lib_a-lseekr.o)
 .debug_loc     0x000037c8       0x97 c:/altera/12.1sp1/nios2eds/bin/gnu/h-i686-mingw32/bin/../lib/gcc/nios2-elf/4.1.2/../../../../nios2-elf/lib\libc.a(lib_a-readr.o)
 .debug_loc     0x0000385f       0x56 ../transmitter_test_bsp/\libucosii_bsp.a(alt_close.o)
 .debug_loc     0x000038b5       0x2b ../transmitter_test_bsp/\libucosii_bsp.a(alt_dev.o)
 .debug_loc     0x000038e0       0x56 ../transmitter_test_bsp/\libucosii_bsp.a(alt_fstat.o)
 .debug_loc     0x00003936       0x57 ../transmitter_test_bsp/\libucosii_bsp.a(alt_isatty.o)
 .debug_loc     0x0000398d       0x56 ../transmitter_test_bsp/\libucosii_bsp.a(alt_load.o)
 .debug_loc     0x000039e3       0x56 ../transmitter_test_bsp/\libucosii_bsp.a(alt_lseek.o)
 .debug_loc     0x00003a39       0x2b ../transmitter_test_bsp/\libucosii_bsp.a(alt_main.o)
 .debug_loc     0x00003a64       0x56 ../transmitter_test_bsp/\libucosii_bsp.a(alt_read.o)
 .debug_loc     0x00003aba       0x2b ../transmitter_test_bsp/\libucosii_bsp.a(alt_release_fd.o)
 .debug_loc     0x00003ae5       0x2b ../transmitter_test_bsp/\libucosii_bsp.a(alt_sbrk.o)
 .debug_loc     0x00003b10       0x56 ../transmitter_test_bsp/\libucosii_bsp.a(alt_write.o)
 .debug_loc     0x00003b66       0x57 ../transmitter_test_bsp/\libucosii_bsp.a(alt_env_lock.o)
 .debug_loc     0x00003bbd       0x57 ../transmitter_test_bsp/\libucosii_bsp.a(alt_malloc_lock.o)
 .debug_loc     0x00003c14      0x5e2 ../transmitter_test_bsp/\libucosii_bsp.a(os_core.o)
 .debug_loc     0x000041f6       0x2b ../transmitter_test_bsp/\libucosii_bsp.a(os_dbg.o)
 .debug_loc     0x00004221      0x232 ../transmitter_test_bsp/\libucosii_bsp.a(os_flag.o)
 .debug_loc     0x00004453      0x12d ../transmitter_test_bsp/\libucosii_bsp.a(os_mem.o)
 .debug_loc     0x00004580      0x1da ../transmitter_test_bsp/\libucosii_bsp.a(os_q.o)
 .debug_loc     0x0000475a      0x158 ../transmitter_test_bsp/\libucosii_bsp.a(os_sem.o)
 .debug_loc     0x000048b2      0x207 ../transmitter_test_bsp/\libucosii_bsp.a(os_task.o)
 .debug_loc     0x00004ab9       0xd7 ../transmitter_test_bsp/\libucosii_bsp.a(os_time.o)
 .debug_loc     0x00004b90       0x81 ../transmitter_test_bsp/\libucosii_bsp.a(alt_sys_init.o)
 .debug_loc     0x00004c11      0x1af ../transmitter_test_bsp/\libucosii_bsp.a(altera_avalon_epcs_flash_controller.o)
 .debug_loc     0x00004dc0       0xac ../transmitter_test_bsp/\libucosii_bsp.a(altera_avalon_jtag_uart_fd.o)
 .debug_loc     0x00004e6c       0xac ../transmitter_test_bsp/\libucosii_bsp.a(altera_avalon_jtag_uart_init.o)
 .debug_loc     0x00004f18       0x2b ../transmitter_test_bsp/\libucosii_bsp.a(altera_avalon_jtag_uart_ioctl.o)
 .debug_loc     0x00004f43       0x2c ../transmitter_test_bsp/\libucosii_bsp.a(altera_avalon_jtag_uart_read.o)
 .debug_loc     0x00004f6f       0x2c ../transmitter_test_bsp/\libucosii_bsp.a(altera_avalon_jtag_uart_write.o)
 .debug_loc     0x00004f9b       0x56 ../transmitter_test_bsp/\libucosii_bsp.a(altera_avalon_timer_sc.o)
 .debug_loc     0x00004ff1      0x204 ../transmitter_test_bsp/\libucosii_bsp.a(epcs_commands.o)
 .debug_loc     0x000051f5       0x2b ../transmitter_test_bsp/\libucosii_bsp.a(alt_alarm_start.o)
 .debug_loc     0x00005220       0x2b ../transmitter_test_bsp/\libucosii_bsp.a(alt_dcache_flush_all.o)
 .debug_loc     0x0000524b       0x56 ../transmitter_test_bsp/\libucosii_bsp.a(alt_dev_llist_insert.o)
 .debug_loc     0x000052a1       0x2b ../transmitter_test_bsp/\libucosii_bsp.a(alt_do_ctors.o)
 .debug_loc     0x000052cc       0x2b ../transmitter_test_bsp/\libucosii_bsp.a(alt_do_dtors.o)
 .debug_loc     0x000052f7       0x56 ../transmitter_test_bsp/\libucosii_bsp.a(alt_flash_dev.o)
 .debug_loc     0x0000534d       0x2b ../transmitter_test_bsp/\libucosii_bsp.a(alt_icache_flush_all.o)
 .debug_loc     0x00005378       0xac ../transmitter_test_bsp/\libucosii_bsp.a(alt_iic.o)
 .debug_loc     0x00005424       0x2b ../transmitter_test_bsp/\libucosii_bsp.a(alt_iic_isr_register.o)
 .debug_loc     0x0000544f       0x56 ../transmitter_test_bsp/\libucosii_bsp.a(alt_io_redirect.o)
 .debug_loc     0x000054a5       0x2b ../transmitter_test_bsp/\libucosii_bsp.a(alt_irq_handler.o)
 .debug_loc     0x000054d0       0x81 ../transmitter_test_bsp/\libucosii_bsp.a(alt_open.o)
 .debug_loc     0x00005551       0x56 ../transmitter_test_bsp/\libucosii_bsp.a(alt_tick.o)
 .debug_loc     0x000055a7       0x2b ../transmitter_test_bsp/\libucosii_bsp.a(altera_nios2_qsys_irq.o)
 .debug_loc     0x000055d2      0x1ae ../transmitter_test_bsp/\libucosii_bsp.a(os_cpu_c.o)
 .debug_loc     0x00005780       0x2b ../transmitter_test_bsp/\libucosii_bsp.a(altera_avalon_spi.o)
 .debug_loc     0x000057ab       0x2b ../transmitter_test_bsp/\libucosii_bsp.a(alt_find_dev.o)
 .debug_loc     0x000057d6       0x2b ../transmitter_test_bsp/\libucosii_bsp.a(alt_find_file.o)
 .debug_loc     0x00005801       0x2b ../transmitter_test_bsp/\libucosii_bsp.a(alt_get_fd.o)
 .debug_loc     0x0000582c       0x2b ../transmitter_test_bsp/\libucosii_bsp.a(alt_icache_flush.o)
 .debug_loc     0x00005857       0x1e c:/altera/12.1sp1/nios2eds/bin/gnu/h-i686-mingw32/bin/../lib/gcc/nios2-elf/4.1.2/../../../../nios2-elf/lib\libc.a(lib_a-atexit.o)
 .debug_loc     0x00005875       0x3d c:/altera/12.1sp1/nios2eds/bin/gnu/h-i686-mingw32/bin/../lib/gcc/nios2-elf/4.1.2/../../../../nios2-elf/lib\libc.a(lib_a-exit.o)
 .debug_loc     0x000058b2      0x114 c:/altera/12.1sp1/nios2eds/bin/gnu/h-i686-mingw32/bin/../lib/gcc/nios2-elf/4.1.2/../../../../nios2-elf/lib\libc.a(lib_a-memcmp.o)
 .debug_loc     0x000059c6      0x120 c:/altera/12.1sp1/nios2eds/bin/gnu/h-i686-mingw32/bin/../lib/gcc/nios2-elf/4.1.2/../../../../nios2-elf/lib\libc.a(lib_a-__atexit.o)
 .debug_loc     0x00005ae6      0x1cb c:/altera/12.1sp1/nios2eds/bin/gnu/h-i686-mingw32/bin/../lib/gcc/nios2-elf/4.1.2/../../../../nios2-elf/lib\libc.a(lib_a-__call_atexit.o)
 .debug_loc     0x00005cb1      0x1d2 c:/altera/12.1sp1/nios2eds/bin/gnu/h-i686-mingw32/bin/../lib/gcc/nios2-elf/4.1.2\libgcc.a(lib2-divmod.o)
 .debug_loc     0x00005e83       0x56 ../transmitter_test_bsp/\libucosii_bsp.a(alt_exit.o)

.debug_macinfo
 *(.debug_macinfo)

.debug_weaknames
 *(.debug_weaknames)

.debug_funcnames
 *(.debug_funcnames)

.debug_typenames
 *(.debug_typenames)

.debug_varnames
 *(.debug_varnames)

.debug_alt_sim_info
                0x00000000       0x30
 *(.debug_alt_sim_info)
 .debug_alt_sim_info
                0x00000000       0x30 ../transmitter_test_bsp//obj/HAL/src/crt0.o
                0x04000000                __alt_data_end = 0x4000000
                0x04000000                PROVIDE (__alt_stack_pointer, __alt_data_end)
                0x02019470                PROVIDE (__alt_stack_limit, __alt_stack_base)
                0x02019470                PROVIDE (__alt_heap_start, end)
                0x04000000                PROVIDE (__alt_heap_limit, 0x4000000)
OUTPUT(transmitter_test.elf elf32-littlenios2)

.debug_ranges   0x00000000      0x328
 .debug_ranges  0x00000000       0x20 ../transmitter_test_bsp//obj/HAL/src/crt0.o
 .debug_ranges  0x00000020       0x18 c:/altera/12.1sp1/nios2eds/bin/gnu/h-i686-mingw32/bin/../lib/gcc/nios2-elf/4.1.2/../../../../nios2-elf/lib\libstdc++.a(class_type_info.o)
 .debug_ranges  0x00000038       0x70 c:/altera/12.1sp1/nios2eds/bin/gnu/h-i686-mingw32/bin/../lib/gcc/nios2-elf/4.1.2/../../../../nios2-elf/lib\libc.a(lib_a-mallocr.o)
 .debug_ranges  0x000000a8       0x28 c:/altera/12.1sp1/nios2eds/bin/gnu/h-i686-mingw32/bin/../lib/gcc/nios2-elf/4.1.2/../../../../nios2-elf/lib\libc.a(lib_a-fvwrite.o)
 .debug_ranges  0x000000d0      0x110 c:/altera/12.1sp1/nios2eds/bin/gnu/h-i686-mingw32/bin/../lib/gcc/nios2-elf/4.1.2/../../../../nios2-elf/lib\libc.a(lib_a-reallocr.o)
 .debug_ranges  0x000001e0       0x20 c:/altera/12.1sp1/nios2eds/bin/gnu/h-i686-mingw32/bin/../lib/gcc/nios2-elf/4.1.2/../../../../nios2-elf/lib\libc.a(lib_a-fflush.o)
 .debug_ranges  0x00000200       0xa0 c:/altera/12.1sp1/nios2eds/bin/gnu/h-i686-mingw32/bin/../lib/gcc/nios2-elf/4.1.2/../../../../nios2-elf/lib\libc.a(lib_a-fwalk.o)
 .debug_ranges  0x000002a0       0x18 ../transmitter_test_bsp/\libucosii_bsp.a(altera_avalon_jtag_uart_init.o)
 .debug_ranges  0x000002b8       0x28 ../transmitter_test_bsp/\libucosii_bsp.a(alt_irq_entry.o)
 .debug_ranges  0x000002e0       0x30 ../transmitter_test_bsp/\libucosii_bsp.a(alt_exception_entry.o)
 .debug_ranges  0x00000310       0x18 c:/altera/12.1sp1/nios2eds/bin/gnu/h-i686-mingw32/bin/../lib/gcc/nios2-elf/4.1.2/../../../../nios2-elf/lib\libc.a(lib_a-__call_atexit.o)
